
mini_sumo.elf:     file format elf32-avr

Sections:
Idx Name          Size      VMA       LMA       File off  Algn
  0 .data         00000010  00800100  00001538  000015cc  2**0
                  CONTENTS, ALLOC, LOAD, DATA
  1 .text         00001538  00000000  00000000  00000094  2**1
                  CONTENTS, ALLOC, LOAD, READONLY, CODE
  2 .bss          0000003d  00800110  00800110  000015dc  2**0
                  ALLOC
  3 .comment      00000030  00000000  00000000  000015dc  2**0
                  CONTENTS, READONLY

Disassembly of section .text:

00000000 <__vectors>:
       0:	0c 94 48 00 	jmp	0x90	; 0x90 <__ctors_end>
       4:	0c 94 65 00 	jmp	0xca	; 0xca <__bad_interrupt>
       8:	0c 94 65 00 	jmp	0xca	; 0xca <__bad_interrupt>
       c:	0c 94 be 01 	jmp	0x37c	; 0x37c <__vector_3>
      10:	0c 94 ef 01 	jmp	0x3de	; 0x3de <__vector_4>
      14:	0c 94 65 00 	jmp	0xca	; 0xca <__bad_interrupt>
      18:	0c 94 65 00 	jmp	0xca	; 0xca <__bad_interrupt>
      1c:	0c 94 5f 01 	jmp	0x2be	; 0x2be <__vector_7>
      20:	0c 94 65 00 	jmp	0xca	; 0xca <__bad_interrupt>
      24:	0c 94 65 00 	jmp	0xca	; 0xca <__bad_interrupt>
      28:	0c 94 65 00 	jmp	0xca	; 0xca <__bad_interrupt>
      2c:	0c 94 65 00 	jmp	0xca	; 0xca <__bad_interrupt>
      30:	0c 94 65 00 	jmp	0xca	; 0xca <__bad_interrupt>
      34:	0c 94 84 01 	jmp	0x308	; 0x308 <__vector_13>
      38:	0c 94 65 00 	jmp	0xca	; 0xca <__bad_interrupt>
      3c:	0c 94 65 00 	jmp	0xca	; 0xca <__bad_interrupt>
      40:	0c 94 65 00 	jmp	0xca	; 0xca <__bad_interrupt>
      44:	0c 94 65 00 	jmp	0xca	; 0xca <__bad_interrupt>
      48:	0c 94 65 00 	jmp	0xca	; 0xca <__bad_interrupt>
      4c:	0c 94 65 00 	jmp	0xca	; 0xca <__bad_interrupt>
      50:	0c 94 65 00 	jmp	0xca	; 0xca <__bad_interrupt>
      54:	0c 94 65 00 	jmp	0xca	; 0xca <__bad_interrupt>
      58:	0c 94 65 00 	jmp	0xca	; 0xca <__bad_interrupt>
      5c:	0c 94 65 00 	jmp	0xca	; 0xca <__bad_interrupt>
      60:	0c 94 65 00 	jmp	0xca	; 0xca <__bad_interrupt>
      64:	0c 94 65 00 	jmp	0xca	; 0xca <__bad_interrupt>

00000068 <QF_active>:
      68:	00 00 00 00 00 38 01 10 01 14                       .....8....

00000072 <Q_this_module_>:
      72:	71 65 70 6e 00                                      qepn.

00000077 <QF_log2Lkup>:
      77:	00 01 02 02 03 03 03 03 04 04 04 04 04 04 04 04     ................

00000087 <Q_this_module_>:
      87:	71 66 6e 00                                         qfn.

0000008b <Q_this_module_>:
      8b:	71 76 6e 00 00                                      qvn..

00000090 <__ctors_end>:
      90:	11 24       	eor	r1, r1
      92:	1f be       	out	0x3f, r1	; 63
      94:	cf ef       	ldi	r28, 0xFF	; 255
      96:	d8 e0       	ldi	r29, 0x08	; 8
      98:	de bf       	out	0x3e, r29	; 62
      9a:	cd bf       	out	0x3d, r28	; 61

0000009c <__do_copy_data>:
      9c:	11 e0       	ldi	r17, 0x01	; 1
      9e:	a0 e0       	ldi	r26, 0x00	; 0
      a0:	b1 e0       	ldi	r27, 0x01	; 1
      a2:	e8 e3       	ldi	r30, 0x38	; 56
      a4:	f5 e1       	ldi	r31, 0x15	; 21
      a6:	02 c0       	rjmp	.+4      	; 0xac <__do_copy_data+0x10>
      a8:	05 90       	lpm	r0, Z+
      aa:	0d 92       	st	X+, r0
      ac:	a0 31       	cpi	r26, 0x10	; 16
      ae:	b1 07       	cpc	r27, r17
      b0:	d9 f7       	brne	.-10     	; 0xa8 <__do_copy_data+0xc>

000000b2 <__do_clear_bss>:
      b2:	21 e0       	ldi	r18, 0x01	; 1
      b4:	a0 e1       	ldi	r26, 0x10	; 16
      b6:	b1 e0       	ldi	r27, 0x01	; 1
      b8:	01 c0       	rjmp	.+2      	; 0xbc <.do_clear_bss_start>

000000ba <.do_clear_bss_loop>:
      ba:	1d 92       	st	X+, r1

000000bc <.do_clear_bss_start>:
      bc:	ad 34       	cpi	r26, 0x4D	; 77
      be:	b2 07       	cpc	r27, r18
      c0:	e1 f7       	brne	.-8      	; 0xba <.do_clear_bss_loop>
      c2:	0e 94 53 01 	call	0x2a6	; 0x2a6 <main>
      c6:	0c 94 9a 0a 	jmp	0x1534	; 0x1534 <_exit>

000000ca <__bad_interrupt>:
      ca:	0c 94 00 00 	jmp	0	; 0x0 <__vectors>

000000ce <BSP_delay_ms>:
      ce:	9b 01       	movw	r18, r22
      d0:	ac 01       	movw	r20, r24
      d2:	60 e0       	ldi	r22, 0x00	; 0
      d4:	74 e2       	ldi	r23, 0x24	; 36
      d6:	84 ef       	ldi	r24, 0xF4	; 244
      d8:	90 e0       	ldi	r25, 0x00	; 0
      da:	0e 94 4e 0a 	call	0x149c	; 0x149c <__mulsi3>
      de:	28 ee       	ldi	r18, 0xE8	; 232
      e0:	33 e0       	ldi	r19, 0x03	; 3
      e2:	40 e0       	ldi	r20, 0x00	; 0
      e4:	50 e0       	ldi	r21, 0x00	; 0
      e6:	0e 94 5e 0a 	call	0x14bc	; 0x14bc <__udivmodsi4>
      ea:	21 15       	cp	r18, r1
      ec:	31 05       	cpc	r19, r1
      ee:	41 05       	cpc	r20, r1
      f0:	51 05       	cpc	r21, r1
      f2:	51 f0       	breq	.+20     	; 0x108 <BSP_delay_ms+0x3a>
      f4:	21 50       	subi	r18, 0x01	; 1
      f6:	31 09       	sbc	r19, r1
      f8:	41 09       	sbc	r20, r1
      fa:	51 09       	sbc	r21, r1
      fc:	00 00       	nop
      fe:	21 15       	cp	r18, r1
     100:	31 05       	cpc	r19, r1
     102:	41 05       	cpc	r20, r1
     104:	51 05       	cpc	r21, r1
     106:	b1 f7       	brne	.-20     	; 0xf4 <BSP_delay_ms+0x26>
     108:	08 95       	ret

0000010a <BSP_InitGPIO>:
     10a:	83 e2       	ldi	r24, 0x23	; 35
     10c:	84 b9       	out	0x04, r24	; 4
     10e:	80 e9       	ldi	r24, 0x90	; 144
     110:	8a b9       	out	0x0a, r24	; 10
     112:	8c e0       	ldi	r24, 0x0C	; 12
     114:	8b b9       	out	0x0b, r24	; 11
     116:	84 e0       	ldi	r24, 0x04	; 4
     118:	85 b9       	out	0x05, r24	; 5
     11a:	93 e0       	ldi	r25, 0x03	; 3
     11c:	90 93 68 00 	sts	0x0068, r25
     120:	80 93 6b 00 	sts	0x006B, r24
     124:	80 e3       	ldi	r24, 0x30	; 48
     126:	80 93 6c 00 	sts	0x006C, r24
     12a:	08 95       	ret

0000012c <BSP_InitTimer0>:
     12c:	8a b1       	in	r24, 0x0a	; 10
     12e:	80 66       	ori	r24, 0x60	; 96
     130:	8a b9       	out	0x0a, r24	; 10
     132:	81 ea       	ldi	r24, 0xA1	; 161
     134:	84 bd       	out	0x24, r24	; 36
     136:	81 e0       	ldi	r24, 0x01	; 1
     138:	85 bd       	out	0x25, r24	; 37
     13a:	17 bc       	out	0x27, r1	; 39
     13c:	18 bc       	out	0x28, r1	; 40
     13e:	08 95       	ret

00000140 <BSP_InitADC>:
     140:	e4 e6       	ldi	r30, 0x64	; 100
     142:	f0 e0       	ldi	r31, 0x00	; 0
     144:	80 81       	ld	r24, Z
     146:	8e 7f       	andi	r24, 0xFE	; 254
     148:	80 83       	st	Z, r24
     14a:	80 e6       	ldi	r24, 0x60	; 96
     14c:	80 93 7c 00 	sts	0x007C, r24
     150:	87 e8       	ldi	r24, 0x87	; 135
     152:	80 93 7a 00 	sts	0x007A, r24
     156:	87 e0       	ldi	r24, 0x07	; 7
     158:	80 93 7e 00 	sts	0x007E, r24
     15c:	08 95       	ret

0000015e <BSP_SetTimer1>:
     15e:	21 e0       	ldi	r18, 0x01	; 1
     160:	20 93 6f 00 	sts	0x006F, r18
     164:	26 bb       	out	0x16, r18	; 22
     166:	2d e7       	ldi	r18, 0x7D	; 125
     168:	ac 01       	movw	r20, r24
     16a:	24 9f       	mul	r18, r20
     16c:	c0 01       	movw	r24, r0
     16e:	25 9f       	mul	r18, r21
     170:	90 0d       	add	r25, r0
     172:	11 24       	eor	r1, r1
     174:	96 95       	lsr	r25
     176:	87 95       	ror	r24
     178:	80 95       	com	r24
     17a:	90 95       	com	r25
     17c:	90 93 85 00 	sts	0x0085, r25
     180:	80 93 84 00 	sts	0x0084, r24
     184:	84 e0       	ldi	r24, 0x04	; 4
     186:	80 93 81 00 	sts	0x0081, r24
     18a:	08 95       	ret

0000018c <BSP_ToggleLed>:
     18c:	1d 9a       	sbi	0x03, 5	; 3
     18e:	08 95       	ret

00000190 <BSP_LedOn>:
     190:	2d 9a       	sbi	0x05, 5	; 5
     192:	08 95       	ret

00000194 <BSP_LedOff>:
     194:	2d 98       	cbi	0x05, 5	; 5
     196:	08 95       	ret

00000198 <BSP_Stop>:
     198:	5c 9a       	sbi	0x0b, 4	; 11
     19a:	29 9a       	sbi	0x05, 1	; 5
     19c:	28 9a       	sbi	0x05, 0	; 5
     19e:	5f 9a       	sbi	0x0b, 7	; 11
     1a0:	17 bc       	out	0x27, r1	; 39
     1a2:	18 bc       	out	0x28, r1	; 40
     1a4:	08 95       	ret

000001a6 <BSP_GoForward>:
     1a6:	5c 9a       	sbi	0x0b, 4	; 11
     1a8:	29 98       	cbi	0x05, 1	; 5
     1aa:	28 9a       	sbi	0x05, 0	; 5
     1ac:	5f 98       	cbi	0x0b, 7	; 11
     1ae:	8f ef       	ldi	r24, 0xFF	; 255
     1b0:	87 bd       	out	0x27, r24	; 39
     1b2:	80 ec       	ldi	r24, 0xC0	; 192
     1b4:	88 bd       	out	0x28, r24	; 40
     1b6:	08 95       	ret

000001b8 <BSP_GoBack>:
     1b8:	5c 98       	cbi	0x0b, 4	; 11
     1ba:	29 9a       	sbi	0x05, 1	; 5
     1bc:	28 98       	cbi	0x05, 0	; 5
     1be:	5f 9a       	sbi	0x0b, 7	; 11
     1c0:	8f ef       	ldi	r24, 0xFF	; 255
     1c2:	87 bd       	out	0x27, r24	; 39
     1c4:	80 ec       	ldi	r24, 0xC0	; 192
     1c6:	88 bd       	out	0x28, r24	; 40
     1c8:	08 95       	ret

000001ca <BSP_TurnRight>:
     1ca:	5c 9a       	sbi	0x0b, 4	; 11
     1cc:	29 98       	cbi	0x05, 1	; 5
     1ce:	28 98       	cbi	0x05, 0	; 5
     1d0:	5f 9a       	sbi	0x0b, 7	; 11
     1d2:	8f ef       	ldi	r24, 0xFF	; 255
     1d4:	87 bd       	out	0x27, r24	; 39
     1d6:	88 bd       	out	0x28, r24	; 40
     1d8:	08 95       	ret

000001da <BSP_TurnLeft>:
     1da:	5c 98       	cbi	0x0b, 4	; 11
     1dc:	29 9a       	sbi	0x05, 1	; 5
     1de:	28 9a       	sbi	0x05, 0	; 5
     1e0:	5f 98       	cbi	0x0b, 7	; 11
     1e2:	8f ef       	ldi	r24, 0xFF	; 255
     1e4:	87 bd       	out	0x27, r24	; 39
     1e6:	88 bd       	out	0x28, r24	; 40
     1e8:	08 95       	ret

000001ea <BSP_TurnSpeed>:
     1ea:	48 2f       	mov	r20, r24
     1ec:	44 0f       	add	r20, r20
     1ee:	44 0f       	add	r20, r20
     1f0:	48 0f       	add	r20, r24
     1f2:	84 2f       	mov	r24, r20
     1f4:	90 e0       	ldi	r25, 0x00	; 0
     1f6:	26 2f       	mov	r18, r22
     1f8:	30 e0       	ldi	r19, 0x00	; 0
     1fa:	20 95       	com	r18
     1fc:	30 95       	com	r19
     1fe:	82 23       	and	r24, r18
     200:	93 23       	and	r25, r19
     202:	2f ef       	ldi	r18, 0xFF	; 255
     204:	30 e0       	ldi	r19, 0x00	; 0
     206:	28 1b       	sub	r18, r24
     208:	39 0b       	sbc	r19, r25
     20a:	c9 01       	movw	r24, r18
     20c:	88 0f       	add	r24, r24
     20e:	99 1f       	adc	r25, r25
     210:	82 0f       	add	r24, r18
     212:	93 1f       	adc	r25, r19
     214:	5c 9a       	sbi	0x0b, 4	; 11
     216:	29 98       	cbi	0x05, 1	; 5
     218:	28 9a       	sbi	0x05, 0	; 5
     21a:	5f 98       	cbi	0x0b, 7	; 11
     21c:	46 23       	and	r20, r22
     21e:	40 95       	com	r20
     220:	47 bd       	out	0x27, r20	; 39
     222:	96 95       	lsr	r25
     224:	87 95       	ror	r24
     226:	96 95       	lsr	r25
     228:	87 95       	ror	r24
     22a:	88 bd       	out	0x28, r24	; 40
     22c:	08 95       	ret

0000022e <BSP_ReadMode>:
     22e:	29 b1       	in	r18, 0x09	; 9
     230:	2c 70       	andi	r18, 0x0C	; 12
     232:	26 95       	lsr	r18
     234:	26 95       	lsr	r18
     236:	fc 01       	movw	r30, r24
     238:	20 8b       	std	Z+16, r18	; 0x10
     23a:	08 95       	ret

0000023c <BSP_ReadOpSensors>:
     23c:	20 91 7c 00 	lds	r18, 0x007C
     240:	20 7f       	andi	r18, 0xF0	; 240
     242:	20 93 7c 00 	sts	0x007C, r18
     246:	20 e0       	ldi	r18, 0x00	; 0
     248:	40 e0       	ldi	r20, 0x00	; 0
     24a:	50 e0       	ldi	r21, 0x00	; 0
     24c:	30 91 7a 00 	lds	r19, 0x007A
     250:	30 64       	ori	r19, 0x40	; 64
     252:	30 93 7a 00 	sts	0x007A, r19
     256:	30 91 7a 00 	lds	r19, 0x007A
     25a:	36 fd       	sbrc	r19, 6
     25c:	fc cf       	rjmp	.-8      	; 0x256 <BSP_ReadOpSensors+0x1a>
     25e:	30 91 79 00 	lds	r19, 0x0079
     262:	23 17       	cp	r18, r19
     264:	18 f4       	brcc	.+6      	; 0x26c <BSP_ReadOpSensors+0x30>
     266:	20 91 79 00 	lds	r18, 0x0079
     26a:	45 2f       	mov	r20, r21
     26c:	30 91 7c 00 	lds	r19, 0x007C
     270:	3f 5f       	subi	r19, 0xFF	; 255
     272:	30 93 7c 00 	sts	0x007C, r19
     276:	5f 5f       	subi	r21, 0xFF	; 255
     278:	53 30       	cpi	r21, 0x03	; 3
     27a:	41 f7       	brne	.-48     	; 0x24c <BSP_ReadOpSensors+0x10>
     27c:	50 e0       	ldi	r21, 0x00	; 0
     27e:	fa 01       	movw	r30, r20
     280:	e0 50       	subi	r30, 0x00	; 0
     282:	ff 4f       	sbci	r31, 0xFF	; 255
     284:	30 81       	ld	r19, Z
     286:	32 17       	cp	r19, r18
     288:	10 f0       	brcs	.+4      	; 0x28e <BSP_ReadOpSensors+0x52>
     28a:	81 e0       	ldi	r24, 0x01	; 1
     28c:	08 95       	ret
     28e:	dc 01       	movw	r26, r24
     290:	ed 91       	ld	r30, X+
     292:	fc 91       	ld	r31, X
     294:	45 5f       	subi	r20, 0xF5	; 245
     296:	5f 4f       	sbci	r21, 0xFF	; 255
     298:	04 80       	ldd	r0, Z+4	; 0x04
     29a:	f5 81       	ldd	r31, Z+5	; 0x05
     29c:	e0 2d       	mov	r30, r0
     29e:	6f ef       	ldi	r22, 0xFF	; 255
     2a0:	09 95       	icall
     2a2:	80 e0       	ldi	r24, 0x00	; 0
     2a4:	08 95       	ret

000002a6 <main>:
     2a6:	82 e0       	ldi	r24, 0x02	; 2
     2a8:	0e 94 1b 06 	call	0xc36	; 0xc36 <QF_init>
     2ac:	67 e4       	ldi	r22, 0x47	; 71
     2ae:	7a e0       	ldi	r23, 0x0A	; 10
     2b0:	88 e3       	ldi	r24, 0x38	; 56
     2b2:	91 e0       	ldi	r25, 0x01	; 1
     2b4:	0e 94 0f 06 	call	0xc1e	; 0xc1e <QActive_ctor>
     2b8:	0e 94 b5 06 	call	0xd6a	; 0xd6a <QF_run>
     2bc:	fd cf       	rjmp	.-6      	; 0x2b8 <main+0x12>

000002be <__vector_7>:
     2be:	1f 92       	push	r1
     2c0:	0f 92       	push	r0
     2c2:	0f b6       	in	r0, 0x3f	; 63
     2c4:	0f 92       	push	r0
     2c6:	11 24       	eor	r1, r1
     2c8:	2f 93       	push	r18
     2ca:	3f 93       	push	r19
     2cc:	4f 93       	push	r20
     2ce:	5f 93       	push	r21
     2d0:	6f 93       	push	r22
     2d2:	7f 93       	push	r23
     2d4:	8f 93       	push	r24
     2d6:	9f 93       	push	r25
     2d8:	af 93       	push	r26
     2da:	bf 93       	push	r27
     2dc:	ef 93       	push	r30
     2de:	ff 93       	push	r31
     2e0:	80 e0       	ldi	r24, 0x00	; 0
     2e2:	0e 94 59 06 	call	0xcb2	; 0xcb2 <QF_tickXISR>
     2e6:	ff 91       	pop	r31
     2e8:	ef 91       	pop	r30
     2ea:	bf 91       	pop	r27
     2ec:	af 91       	pop	r26
     2ee:	9f 91       	pop	r25
     2f0:	8f 91       	pop	r24
     2f2:	7f 91       	pop	r23
     2f4:	6f 91       	pop	r22
     2f6:	5f 91       	pop	r21
     2f8:	4f 91       	pop	r20
     2fa:	3f 91       	pop	r19
     2fc:	2f 91       	pop	r18
     2fe:	0f 90       	pop	r0
     300:	0f be       	out	0x3f, r0	; 63
     302:	0f 90       	pop	r0
     304:	1f 90       	pop	r1
     306:	18 95       	reti

00000308 <__vector_13>:
     308:	1f 92       	push	r1
     30a:	0f 92       	push	r0
     30c:	0f b6       	in	r0, 0x3f	; 63
     30e:	0f 92       	push	r0
     310:	11 24       	eor	r1, r1
     312:	2f 93       	push	r18
     314:	3f 93       	push	r19
     316:	4f 93       	push	r20
     318:	5f 93       	push	r21
     31a:	6f 93       	push	r22
     31c:	7f 93       	push	r23
     31e:	8f 93       	push	r24
     320:	9f 93       	push	r25
     322:	af 93       	push	r26
     324:	bf 93       	push	r27
     326:	ef 93       	push	r30
     328:	ff 93       	push	r31
     32a:	e1 e8       	ldi	r30, 0x81	; 129
     32c:	f0 e0       	ldi	r31, 0x00	; 0
     32e:	80 81       	ld	r24, Z
     330:	8b 7f       	andi	r24, 0xFB	; 251
     332:	80 83       	st	Z, r24
     334:	ef e6       	ldi	r30, 0x6F	; 111
     336:	f0 e0       	ldi	r31, 0x00	; 0
     338:	80 81       	ld	r24, Z
     33a:	8e 7f       	andi	r24, 0xFE	; 254
     33c:	80 83       	st	Z, r24
     33e:	e0 91 38 01 	lds	r30, 0x0138
     342:	f0 91 39 01 	lds	r31, 0x0139
     346:	06 80       	ldd	r0, Z+6	; 0x06
     348:	f7 81       	ldd	r31, Z+7	; 0x07
     34a:	e0 2d       	mov	r30, r0
     34c:	20 e0       	ldi	r18, 0x00	; 0
     34e:	40 e1       	ldi	r20, 0x10	; 16
     350:	50 e0       	ldi	r21, 0x00	; 0
     352:	6f ef       	ldi	r22, 0xFF	; 255
     354:	88 e3       	ldi	r24, 0x38	; 56
     356:	91 e0       	ldi	r25, 0x01	; 1
     358:	09 95       	icall
     35a:	ff 91       	pop	r31
     35c:	ef 91       	pop	r30
     35e:	bf 91       	pop	r27
     360:	af 91       	pop	r26
     362:	9f 91       	pop	r25
     364:	8f 91       	pop	r24
     366:	7f 91       	pop	r23
     368:	6f 91       	pop	r22
     36a:	5f 91       	pop	r21
     36c:	4f 91       	pop	r20
     36e:	3f 91       	pop	r19
     370:	2f 91       	pop	r18
     372:	0f 90       	pop	r0
     374:	0f be       	out	0x3f, r0	; 63
     376:	0f 90       	pop	r0
     378:	1f 90       	pop	r1
     37a:	18 95       	reti

0000037c <__vector_3>:
     37c:	1f 92       	push	r1
     37e:	0f 92       	push	r0
     380:	0f b6       	in	r0, 0x3f	; 63
     382:	0f 92       	push	r0
     384:	11 24       	eor	r1, r1
     386:	2f 93       	push	r18
     388:	3f 93       	push	r19
     38a:	4f 93       	push	r20
     38c:	5f 93       	push	r21
     38e:	6f 93       	push	r22
     390:	7f 93       	push	r23
     392:	8f 93       	push	r24
     394:	9f 93       	push	r25
     396:	af 93       	push	r26
     398:	bf 93       	push	r27
     39a:	ef 93       	push	r30
     39c:	ff 93       	push	r31
     39e:	83 b1       	in	r24, 0x03	; 3
     3a0:	e0 91 38 01 	lds	r30, 0x0138
     3a4:	f0 91 39 01 	lds	r31, 0x0139
     3a8:	06 80       	ldd	r0, Z+6	; 0x06
     3aa:	f7 81       	ldd	r31, Z+7	; 0x07
     3ac:	e0 2d       	mov	r30, r0
     3ae:	20 e0       	ldi	r18, 0x00	; 0
     3b0:	48 e0       	ldi	r20, 0x08	; 8
     3b2:	50 e0       	ldi	r21, 0x00	; 0
     3b4:	6f ef       	ldi	r22, 0xFF	; 255
     3b6:	88 e3       	ldi	r24, 0x38	; 56
     3b8:	91 e0       	ldi	r25, 0x01	; 1
     3ba:	09 95       	icall
     3bc:	ff 91       	pop	r31
     3be:	ef 91       	pop	r30
     3c0:	bf 91       	pop	r27
     3c2:	af 91       	pop	r26
     3c4:	9f 91       	pop	r25
     3c6:	8f 91       	pop	r24
     3c8:	7f 91       	pop	r23
     3ca:	6f 91       	pop	r22
     3cc:	5f 91       	pop	r21
     3ce:	4f 91       	pop	r20
     3d0:	3f 91       	pop	r19
     3d2:	2f 91       	pop	r18
     3d4:	0f 90       	pop	r0
     3d6:	0f be       	out	0x3f, r0	; 63
     3d8:	0f 90       	pop	r0
     3da:	1f 90       	pop	r1
     3dc:	18 95       	reti

000003de <__vector_4>:
     3de:	1f 92       	push	r1
     3e0:	0f 92       	push	r0
     3e2:	0f b6       	in	r0, 0x3f	; 63
     3e4:	0f 92       	push	r0
     3e6:	11 24       	eor	r1, r1
     3e8:	2f 93       	push	r18
     3ea:	3f 93       	push	r19
     3ec:	4f 93       	push	r20
     3ee:	5f 93       	push	r21
     3f0:	6f 93       	push	r22
     3f2:	7f 93       	push	r23
     3f4:	8f 93       	push	r24
     3f6:	9f 93       	push	r25
     3f8:	af 93       	push	r26
     3fa:	bf 93       	push	r27
     3fc:	ef 93       	push	r30
     3fe:	ff 93       	push	r31
     400:	86 b1       	in	r24, 0x06	; 6
     402:	80 73       	andi	r24, 0x30	; 48
     404:	90 e0       	ldi	r25, 0x00	; 0
     406:	95 95       	asr	r25
     408:	87 95       	ror	r24
     40a:	95 95       	asr	r25
     40c:	87 95       	ror	r24
     40e:	95 95       	asr	r25
     410:	87 95       	ror	r24
     412:	95 95       	asr	r25
     414:	87 95       	ror	r24
     416:	83 30       	cpi	r24, 0x03	; 3
     418:	f9 f4       	brne	.+62     	; 0x458 <__vector_4+0x7a>
     41a:	e0 91 38 01 	lds	r30, 0x0138
     41e:	f0 91 39 01 	lds	r31, 0x0139
     422:	06 80       	ldd	r0, Z+6	; 0x06
     424:	f7 81       	ldd	r31, Z+7	; 0x07
     426:	e0 2d       	mov	r30, r0
     428:	20 e0       	ldi	r18, 0x00	; 0
     42a:	4a e0       	ldi	r20, 0x0A	; 10
     42c:	50 e0       	ldi	r21, 0x00	; 0
     42e:	6f ef       	ldi	r22, 0xFF	; 255
     430:	88 e3       	ldi	r24, 0x38	; 56
     432:	91 e0       	ldi	r25, 0x01	; 1
     434:	09 95       	icall
     436:	ff 91       	pop	r31
     438:	ef 91       	pop	r30
     43a:	bf 91       	pop	r27
     43c:	af 91       	pop	r26
     43e:	9f 91       	pop	r25
     440:	8f 91       	pop	r24
     442:	7f 91       	pop	r23
     444:	6f 91       	pop	r22
     446:	5f 91       	pop	r21
     448:	4f 91       	pop	r20
     44a:	3f 91       	pop	r19
     44c:	2f 91       	pop	r18
     44e:	0f 90       	pop	r0
     450:	0f be       	out	0x3f, r0	; 63
     452:	0f 90       	pop	r0
     454:	1f 90       	pop	r1
     456:	18 95       	reti
     458:	80 93 49 01 	sts	0x0149, r24
     45c:	e0 91 38 01 	lds	r30, 0x0138
     460:	f0 91 39 01 	lds	r31, 0x0139
     464:	06 80       	ldd	r0, Z+6	; 0x06
     466:	f7 81       	ldd	r31, Z+7	; 0x07
     468:	e0 2d       	mov	r30, r0
     46a:	20 e0       	ldi	r18, 0x00	; 0
     46c:	49 e0       	ldi	r20, 0x09	; 9
     46e:	50 e0       	ldi	r21, 0x00	; 0
     470:	6f ef       	ldi	r22, 0xFF	; 255
     472:	88 e3       	ldi	r24, 0x38	; 56
     474:	91 e0       	ldi	r25, 0x01	; 1
     476:	09 95       	icall
     478:	de cf       	rjmp	.-68     	; 0x436 <__vector_4+0x58>

0000047a <QF_onStartup>:
     47a:	92 e0       	ldi	r25, 0x02	; 2
     47c:	90 93 b0 00 	sts	0x00B0, r25
     480:	87 e0       	ldi	r24, 0x07	; 7
     482:	80 93 b1 00 	sts	0x00B1, r24
     486:	e6 eb       	ldi	r30, 0xB6	; 182
     488:	f0 e0       	ldi	r31, 0x00	; 0
     48a:	80 81       	ld	r24, Z
     48c:	8f 7d       	andi	r24, 0xDF	; 223
     48e:	80 83       	st	Z, r24
     490:	90 93 70 00 	sts	0x0070, r25
     494:	10 92 b2 00 	sts	0x00B2, r1
     498:	8d e4       	ldi	r24, 0x4D	; 77
     49a:	80 93 b3 00 	sts	0x00B3, r24
     49e:	0e 94 85 00 	call	0x10a	; 0x10a <BSP_InitGPIO>
     4a2:	0e 94 96 00 	call	0x12c	; 0x12c <BSP_InitTimer0>
     4a6:	0c 94 a0 00 	jmp	0x140	; 0x140 <BSP_InitADC>

000004aa <QV_onIdle>:
     4aa:	81 e0       	ldi	r24, 0x01	; 1
     4ac:	83 bf       	out	0x33, r24	; 51
     4ae:	78 94       	sei
     4b0:	88 95       	sleep
     4b2:	13 be       	out	0x33, r1	; 51
     4b4:	08 95       	ret

000004b6 <Q_onAssert>:
     4b6:	f8 94       	cli
     4b8:	0c 94 00 00 	jmp	0	; 0x0 <__vectors>
     4bc:	08 95       	ret

000004be <QHsm_top>:
     4be:	84 e0       	ldi	r24, 0x04	; 4
     4c0:	08 95       	ret

000004c2 <QHsm_init_>:
     4c2:	8f 92       	push	r8
     4c4:	9f 92       	push	r9
     4c6:	af 92       	push	r10
     4c8:	bf 92       	push	r11
     4ca:	cf 92       	push	r12
     4cc:	df 92       	push	r13
     4ce:	ef 92       	push	r14
     4d0:	ff 92       	push	r15
     4d2:	0f 93       	push	r16
     4d4:	1f 93       	push	r17
     4d6:	cf 93       	push	r28
     4d8:	df 93       	push	r29
     4da:	cd b7       	in	r28, 0x3d	; 61
     4dc:	de b7       	in	r29, 0x3e	; 62
     4de:	2a 97       	sbiw	r28, 0x0a	; 10
     4e0:	0f b6       	in	r0, 0x3f	; 63
     4e2:	f8 94       	cli
     4e4:	de bf       	out	0x3e, r29	; 62
     4e6:	0f be       	out	0x3f, r0	; 63
     4e8:	cd bf       	out	0x3d, r28	; 61
     4ea:	7c 01       	movw	r14, r24
     4ec:	dc 01       	movw	r26, r24
     4ee:	12 96       	adiw	r26, 0x02	; 2
     4f0:	cd 90       	ld	r12, X+
     4f2:	dc 90       	ld	r13, X
     4f4:	13 97       	sbiw	r26, 0x03	; 3
     4f6:	8d 91       	ld	r24, X+
     4f8:	9c 91       	ld	r25, X
     4fa:	11 97       	sbiw	r26, 0x01	; 1
     4fc:	89 2b       	or	r24, r25
     4fe:	59 f0       	breq	.+22     	; 0x516 <QHsm_init_+0x54>
     500:	14 96       	adiw	r26, 0x04	; 4
     502:	ed 91       	ld	r30, X+
     504:	fc 91       	ld	r31, X
     506:	15 97       	sbiw	r26, 0x05	; 5
     508:	30 97       	sbiw	r30, 0x00	; 0
     50a:	29 f0       	breq	.+10     	; 0x516 <QHsm_init_+0x54>
     50c:	bf e5       	ldi	r27, 0x5F	; 95
     50e:	cb 16       	cp	r12, r27
     510:	b2 e0       	ldi	r27, 0x02	; 2
     512:	db 06       	cpc	r13, r27
     514:	59 f0       	breq	.+22     	; 0x52c <QHsm_init_+0x6a>
     516:	68 ec       	ldi	r22, 0xC8	; 200
     518:	70 e0       	ldi	r23, 0x00	; 0
     51a:	82 e7       	ldi	r24, 0x72	; 114
     51c:	90 e0       	ldi	r25, 0x00	; 0
     51e:	0e 94 5b 02 	call	0x4b6	; 0x4b6 <Q_onAssert>
     522:	d7 01       	movw	r26, r14
     524:	14 96       	adiw	r26, 0x04	; 4
     526:	ed 91       	ld	r30, X+
     528:	fc 91       	ld	r31, X
     52a:	15 97       	sbiw	r26, 0x05	; 5
     52c:	c7 01       	movw	r24, r14
     52e:	09 95       	icall
     530:	88 30       	cpi	r24, 0x08	; 8
     532:	31 f0       	breq	.+12     	; 0x540 <QHsm_init_+0x7e>
     534:	62 ed       	ldi	r22, 0xD2	; 210
     536:	70 e0       	ldi	r23, 0x00	; 0
     538:	82 e7       	ldi	r24, 0x72	; 114
     53a:	90 e0       	ldi	r25, 0x00	; 0
     53c:	0e 94 5b 02 	call	0x4b6	; 0x4b6 <Q_onAssert>
     540:	88 24       	eor	r8, r8
     542:	83 94       	inc	r8
     544:	83 e0       	ldi	r24, 0x03	; 3
     546:	98 2e       	mov	r9, r24
     548:	f7 01       	movw	r30, r14
     54a:	a4 80       	ldd	r10, Z+4	; 0x04
     54c:	b5 80       	ldd	r11, Z+5	; 0x05
     54e:	ba 82       	std	Y+2, r11	; 0x02
     550:	a9 82       	std	Y+1, r10	; 0x01
     552:	16 82       	std	Z+6, r1	; 0x06
     554:	c7 01       	movw	r24, r14
     556:	f5 01       	movw	r30, r10
     558:	09 95       	icall
     55a:	d7 01       	movw	r26, r14
     55c:	14 96       	adiw	r26, 0x04	; 4
     55e:	0d 91       	ld	r16, X+
     560:	1c 91       	ld	r17, X
     562:	15 97       	sbiw	r26, 0x05	; 5
     564:	0c 15       	cp	r16, r12
     566:	1d 05       	cpc	r17, r13
     568:	09 f4       	brne	.+2      	; 0x56c <QHsm_init_+0xaa>
     56a:	65 c0       	rjmp	.+202    	; 0x636 <QHsm_init_+0x174>
     56c:	bb 24       	eor	r11, r11
     56e:	b3 94       	inc	r11
     570:	ab 2d       	mov	r26, r11
     572:	aa 0f       	add	r26, r26
     574:	bb 0b       	sbc	r27, r27
     576:	81 e0       	ldi	r24, 0x01	; 1
     578:	90 e0       	ldi	r25, 0x00	; 0
     57a:	8c 0f       	add	r24, r28
     57c:	9d 1f       	adc	r25, r29
     57e:	a8 0f       	add	r26, r24
     580:	b9 1f       	adc	r27, r25
     582:	0d 93       	st	X+, r16
     584:	1c 93       	st	X, r17
     586:	c7 01       	movw	r24, r14
     588:	f8 01       	movw	r30, r16
     58a:	09 95       	icall
     58c:	d7 01       	movw	r26, r14
     58e:	14 96       	adiw	r26, 0x04	; 4
     590:	8d 91       	ld	r24, X+
     592:	9c 91       	ld	r25, X
     594:	15 97       	sbiw	r26, 0x05	; 5
     596:	8c 15       	cp	r24, r12
     598:	9d 05       	cpc	r25, r13
     59a:	81 f0       	breq	.+32     	; 0x5bc <QHsm_init_+0xfa>
     59c:	b3 94       	inc	r11
     59e:	b4 e0       	ldi	r27, 0x04	; 4
     5a0:	bb 15       	cp	r27, r11
     5a2:	14 f0       	brlt	.+4      	; 0x5a8 <QHsm_init_+0xe6>
     5a4:	8c 01       	movw	r16, r24
     5a6:	e4 cf       	rjmp	.-56     	; 0x570 <QHsm_init_+0xae>
     5a8:	6c ed       	ldi	r22, 0xDC	; 220
     5aa:	70 e0       	ldi	r23, 0x00	; 0
     5ac:	82 e7       	ldi	r24, 0x72	; 114
     5ae:	90 e0       	ldi	r25, 0x00	; 0
     5b0:	0e 94 5b 02 	call	0x4b6	; 0x4b6 <Q_onAssert>
     5b4:	f7 01       	movw	r30, r14
     5b6:	04 81       	ldd	r16, Z+4	; 0x04
     5b8:	15 81       	ldd	r17, Z+5	; 0x05
     5ba:	da cf       	rjmp	.-76     	; 0x570 <QHsm_init_+0xae>
     5bc:	c9 80       	ldd	r12, Y+1	; 0x01
     5be:	da 80       	ldd	r13, Y+2	; 0x02
     5c0:	f7 01       	movw	r30, r14
     5c2:	d5 82       	std	Z+5, r13	; 0x05
     5c4:	c4 82       	std	Z+4, r12	; 0x04
     5c6:	86 82       	std	Z+6, r8	; 0x06
     5c8:	0b c0       	rjmp	.+22     	; 0x5e0 <QHsm_init_+0x11e>
     5ca:	ab 2d       	mov	r26, r11
     5cc:	aa 0f       	add	r26, r26
     5ce:	bb 0b       	sbc	r27, r27
     5d0:	81 e0       	ldi	r24, 0x01	; 1
     5d2:	90 e0       	ldi	r25, 0x00	; 0
     5d4:	8c 0f       	add	r24, r28
     5d6:	9d 1f       	adc	r25, r29
     5d8:	a8 0f       	add	r26, r24
     5da:	b9 1f       	adc	r27, r25
     5dc:	0d 91       	ld	r16, X+
     5de:	1c 91       	ld	r17, X
     5e0:	c7 01       	movw	r24, r14
     5e2:	f8 01       	movw	r30, r16
     5e4:	09 95       	icall
     5e6:	ba 94       	dec	r11
     5e8:	b7 fe       	sbrs	r11, 7
     5ea:	ef cf       	rjmp	.-34     	; 0x5ca <QHsm_init_+0x108>
     5ec:	d7 01       	movw	r26, r14
     5ee:	16 96       	adiw	r26, 0x06	; 6
     5f0:	9c 92       	st	X, r9
     5f2:	c7 01       	movw	r24, r14
     5f4:	f6 01       	movw	r30, r12
     5f6:	09 95       	icall
     5f8:	88 30       	cpi	r24, 0x08	; 8
     5fa:	09 f4       	brne	.+2      	; 0x5fe <QHsm_init_+0x13c>
     5fc:	a5 cf       	rjmp	.-182    	; 0x548 <QHsm_init_+0x86>
     5fe:	d7 01       	movw	r26, r14
     600:	13 96       	adiw	r26, 0x03	; 3
     602:	dc 92       	st	X, r13
     604:	ce 92       	st	-X, r12
     606:	12 97       	sbiw	r26, 0x02	; 2
     608:	15 96       	adiw	r26, 0x05	; 5
     60a:	dc 92       	st	X, r13
     60c:	ce 92       	st	-X, r12
     60e:	14 97       	sbiw	r26, 0x04	; 4
     610:	2a 96       	adiw	r28, 0x0a	; 10
     612:	0f b6       	in	r0, 0x3f	; 63
     614:	f8 94       	cli
     616:	de bf       	out	0x3e, r29	; 62
     618:	0f be       	out	0x3f, r0	; 63
     61a:	cd bf       	out	0x3d, r28	; 61
     61c:	df 91       	pop	r29
     61e:	cf 91       	pop	r28
     620:	1f 91       	pop	r17
     622:	0f 91       	pop	r16
     624:	ff 90       	pop	r15
     626:	ef 90       	pop	r14
     628:	df 90       	pop	r13
     62a:	cf 90       	pop	r12
     62c:	bf 90       	pop	r11
     62e:	af 90       	pop	r10
     630:	9f 90       	pop	r9
     632:	8f 90       	pop	r8
     634:	08 95       	ret
     636:	65 01       	movw	r12, r10
     638:	85 01       	movw	r16, r10
     63a:	b1 2c       	mov	r11, r1
     63c:	c1 cf       	rjmp	.-126    	; 0x5c0 <QHsm_init_+0xfe>

0000063e <QHsm_dispatch_>:
     63e:	7f 92       	push	r7
     640:	8f 92       	push	r8
     642:	9f 92       	push	r9
     644:	af 92       	push	r10
     646:	bf 92       	push	r11
     648:	cf 92       	push	r12
     64a:	df 92       	push	r13
     64c:	ef 92       	push	r14
     64e:	ff 92       	push	r15
     650:	0f 93       	push	r16
     652:	1f 93       	push	r17
     654:	cf 93       	push	r28
     656:	df 93       	push	r29
     658:	cd b7       	in	r28, 0x3d	; 61
     65a:	de b7       	in	r29, 0x3e	; 62
     65c:	2a 97       	sbiw	r28, 0x0a	; 10
     65e:	0f b6       	in	r0, 0x3f	; 63
     660:	f8 94       	cli
     662:	de bf       	out	0x3e, r29	; 62
     664:	0f be       	out	0x3f, r0	; 63
     666:	cd bf       	out	0x3d, r28	; 61
     668:	8c 01       	movw	r16, r24
     66a:	dc 01       	movw	r26, r24
     66c:	12 96       	adiw	r26, 0x02	; 2
     66e:	cd 90       	ld	r12, X+
     670:	dc 90       	ld	r13, X
     672:	13 97       	sbiw	r26, 0x03	; 3
     674:	c1 14       	cp	r12, r1
     676:	d1 04       	cpc	r13, r1
     678:	41 f0       	breq	.+16     	; 0x68a <QHsm_dispatch_+0x4c>
     67a:	14 96       	adiw	r26, 0x04	; 4
     67c:	8d 91       	ld	r24, X+
     67e:	9c 91       	ld	r25, X
     680:	15 97       	sbiw	r26, 0x05	; 5
     682:	8c 15       	cp	r24, r12
     684:	9d 05       	cpc	r25, r13
     686:	09 f4       	brne	.+2      	; 0x68a <QHsm_dispatch_+0x4c>
     688:	6e c1       	rjmp	.+732    	; 0x966 <__stack+0x67>
     68a:	60 e9       	ldi	r22, 0x90	; 144
     68c:	71 e0       	ldi	r23, 0x01	; 1
     68e:	82 e7       	ldi	r24, 0x72	; 114
     690:	90 e0       	ldi	r25, 0x00	; 0
     692:	0e 94 5b 02 	call	0x4b6	; 0x4b6 <Q_onAssert>
     696:	f8 01       	movw	r30, r16
     698:	94 81       	ldd	r25, Z+4	; 0x04
     69a:	85 81       	ldd	r24, Z+5	; 0x05
     69c:	e9 2e       	mov	r14, r25
     69e:	f8 2e       	mov	r15, r24
     6a0:	05 c0       	rjmp	.+10     	; 0x6ac <QHsm_dispatch_+0x6e>
     6a2:	81 11       	cpse	r24, r1
     6a4:	16 c0       	rjmp	.+44     	; 0x6d2 <QHsm_dispatch_+0x94>
     6a6:	f8 01       	movw	r30, r16
     6a8:	e4 80       	ldd	r14, Z+4	; 0x04
     6aa:	f5 80       	ldd	r15, Z+5	; 0x05
     6ac:	c8 01       	movw	r24, r16
     6ae:	f7 01       	movw	r30, r14
     6b0:	09 95       	icall
     6b2:	82 30       	cpi	r24, 0x02	; 2
     6b4:	b1 f7       	brne	.-20     	; 0x6a2 <QHsm_dispatch_+0x64>
     6b6:	d8 01       	movw	r26, r16
     6b8:	16 96       	adiw	r26, 0x06	; 6
     6ba:	bc 90       	ld	r11, X
     6bc:	16 97       	sbiw	r26, 0x06	; 6
     6be:	16 96       	adiw	r26, 0x06	; 6
     6c0:	1c 92       	st	X, r1
     6c2:	c8 01       	movw	r24, r16
     6c4:	f7 01       	movw	r30, r14
     6c6:	09 95       	icall
     6c8:	d8 01       	movw	r26, r16
     6ca:	16 96       	adiw	r26, 0x06	; 6
     6cc:	bc 92       	st	X, r11
     6ce:	88 23       	and	r24, r24
     6d0:	51 f3       	breq	.-44     	; 0x6a6 <QHsm_dispatch_+0x68>
     6d2:	88 30       	cpi	r24, 0x08	; 8
     6d4:	08 f4       	brcc	.+2      	; 0x6d8 <QHsm_dispatch_+0x9a>
     6d6:	7b c0       	rjmp	.+246    	; 0x7ce <QHsm_dispatch_+0x190>
     6d8:	d8 01       	movw	r26, r16
     6da:	14 96       	adiw	r26, 0x04	; 4
     6dc:	ad 90       	ld	r10, X+
     6de:	bc 90       	ld	r11, X
     6e0:	15 97       	sbiw	r26, 0x05	; 5
     6e2:	ba 82       	std	Y+2, r11	; 0x02
     6e4:	a9 82       	std	Y+1, r10	; 0x01
     6e6:	dc 82       	std	Y+4, r13	; 0x04
     6e8:	cb 82       	std	Y+3, r12	; 0x03
     6ea:	fe 82       	std	Y+6, r15	; 0x06
     6ec:	ed 82       	std	Y+5, r14	; 0x05
     6ee:	ce 14       	cp	r12, r14
     6f0:	df 04       	cpc	r13, r15
     6f2:	01 f1       	breq	.+64     	; 0x734 <QHsm_dispatch_+0xf6>
     6f4:	32 e0       	ldi	r19, 0x02	; 2
     6f6:	93 2e       	mov	r9, r19
     6f8:	08 c0       	rjmp	.+16     	; 0x70a <QHsm_dispatch_+0xcc>
     6fa:	d8 01       	movw	r26, r16
     6fc:	14 96       	adiw	r26, 0x04	; 4
     6fe:	cd 90       	ld	r12, X+
     700:	dc 90       	ld	r13, X
     702:	15 97       	sbiw	r26, 0x05	; 5
     704:	ec 14       	cp	r14, r12
     706:	fd 04       	cpc	r15, r13
     708:	a9 f0       	breq	.+42     	; 0x734 <QHsm_dispatch_+0xf6>
     70a:	f8 01       	movw	r30, r16
     70c:	96 82       	std	Z+6, r9	; 0x06
     70e:	c8 01       	movw	r24, r16
     710:	f6 01       	movw	r30, r12
     712:	09 95       	icall
     714:	83 30       	cpi	r24, 0x03	; 3
     716:	89 f7       	brne	.-30     	; 0x6fa <QHsm_dispatch_+0xbc>
     718:	d8 01       	movw	r26, r16
     71a:	16 96       	adiw	r26, 0x06	; 6
     71c:	1c 92       	st	X, r1
     71e:	c8 01       	movw	r24, r16
     720:	f6 01       	movw	r30, r12
     722:	09 95       	icall
     724:	d8 01       	movw	r26, r16
     726:	14 96       	adiw	r26, 0x04	; 4
     728:	cd 90       	ld	r12, X+
     72a:	dc 90       	ld	r13, X
     72c:	15 97       	sbiw	r26, 0x05	; 5
     72e:	ec 14       	cp	r14, r12
     730:	fd 04       	cpc	r15, r13
     732:	59 f7       	brne	.-42     	; 0x70a <QHsm_dispatch_+0xcc>
     734:	ea 14       	cp	r14, r10
     736:	fb 04       	cpc	r15, r11
     738:	09 f4       	brne	.+2      	; 0x73c <QHsm_dispatch_+0xfe>
     73a:	66 c0       	rjmp	.+204    	; 0x808 <QHsm_dispatch_+0x1ca>
     73c:	d8 01       	movw	r26, r16
     73e:	16 96       	adiw	r26, 0x06	; 6
     740:	1c 92       	st	X, r1
     742:	c8 01       	movw	r24, r16
     744:	f5 01       	movw	r30, r10
     746:	09 95       	icall
     748:	d8 01       	movw	r26, r16
     74a:	14 96       	adiw	r26, 0x04	; 4
     74c:	8d 90       	ld	r8, X+
     74e:	9c 90       	ld	r9, X
     750:	15 97       	sbiw	r26, 0x05	; 5
     752:	e8 14       	cp	r14, r8
     754:	f9 04       	cpc	r15, r9
     756:	09 f4       	brne	.+2      	; 0x75a <QHsm_dispatch_+0x11c>
     758:	5d c0       	rjmp	.+186    	; 0x814 <QHsm_dispatch_+0x1d6>
     75a:	16 96       	adiw	r26, 0x06	; 6
     75c:	1c 92       	st	X, r1
     75e:	c8 01       	movw	r24, r16
     760:	f7 01       	movw	r30, r14
     762:	09 95       	icall
     764:	d8 01       	movw	r26, r16
     766:	14 96       	adiw	r26, 0x04	; 4
     768:	cd 90       	ld	r12, X+
     76a:	dc 90       	ld	r13, X
     76c:	15 97       	sbiw	r26, 0x05	; 5
     76e:	8c 14       	cp	r8, r12
     770:	9d 04       	cpc	r9, r13
     772:	09 f4       	brne	.+2      	; 0x776 <QHsm_dispatch_+0x138>
     774:	3a c1       	rjmp	.+628    	; 0x9ea <__stack+0xeb>
     776:	ac 14       	cp	r10, r12
     778:	bd 04       	cpc	r11, r13
     77a:	09 f4       	brne	.+2      	; 0x77e <QHsm_dispatch_+0x140>
     77c:	48 c1       	rjmp	.+656    	; 0xa0e <__stack+0x10f>
     77e:	9c 82       	std	Y+4, r9	; 0x04
     780:	8b 82       	std	Y+3, r8	; 0x03
     782:	d8 01       	movw	r26, r16
     784:	16 96       	adiw	r26, 0x06	; 6
     786:	1c 92       	st	X, r1
     788:	c8 01       	movw	r24, r16
     78a:	f4 01       	movw	r30, r8
     78c:	09 95       	icall
     78e:	81 11       	cpse	r24, r1
     790:	f0 c0       	rjmp	.+480    	; 0x972 <__stack+0x73>
     792:	88 24       	eor	r8, r8
     794:	83 94       	inc	r8
     796:	ce 01       	movw	r24, r28
     798:	01 96       	adiw	r24, 0x01	; 1
     79a:	5c 01       	movw	r10, r24
     79c:	99 24       	eor	r9, r9
     79e:	93 94       	inc	r9
     7a0:	98 0c       	add	r9, r8
     7a2:	d8 01       	movw	r26, r16
     7a4:	14 96       	adiw	r26, 0x04	; 4
     7a6:	ed 91       	ld	r30, X+
     7a8:	fc 91       	ld	r31, X
     7aa:	15 97       	sbiw	r26, 0x05	; 5
     7ac:	a9 2d       	mov	r26, r9
     7ae:	aa 0f       	add	r26, r26
     7b0:	bb 0b       	sbc	r27, r27
     7b2:	aa 0d       	add	r26, r10
     7b4:	bb 1d       	adc	r27, r11
     7b6:	ed 93       	st	X+, r30
     7b8:	fc 93       	st	X, r31
     7ba:	ee 16       	cp	r14, r30
     7bc:	ff 06       	cpc	r15, r31
     7be:	09 f4       	brne	.+2      	; 0x7c2 <QHsm_dispatch_+0x184>
     7c0:	af c0       	rjmp	.+350    	; 0x920 <__stack+0x21>
     7c2:	c8 01       	movw	r24, r16
     7c4:	09 95       	icall
     7c6:	81 11       	cpse	r24, r1
     7c8:	17 c1       	rjmp	.+558    	; 0x9f8 <__stack+0xf9>
     7ca:	89 2c       	mov	r8, r9
     7cc:	e7 cf       	rjmp	.-50     	; 0x79c <QHsm_dispatch_+0x15e>
     7ce:	d8 01       	movw	r26, r16
     7d0:	13 96       	adiw	r26, 0x03	; 3
     7d2:	dc 92       	st	X, r13
     7d4:	ce 92       	st	-X, r12
     7d6:	12 97       	sbiw	r26, 0x02	; 2
     7d8:	15 96       	adiw	r26, 0x05	; 5
     7da:	dc 92       	st	X, r13
     7dc:	ce 92       	st	-X, r12
     7de:	14 97       	sbiw	r26, 0x04	; 4
     7e0:	2a 96       	adiw	r28, 0x0a	; 10
     7e2:	0f b6       	in	r0, 0x3f	; 63
     7e4:	f8 94       	cli
     7e6:	de bf       	out	0x3e, r29	; 62
     7e8:	0f be       	out	0x3f, r0	; 63
     7ea:	cd bf       	out	0x3d, r28	; 61
     7ec:	df 91       	pop	r29
     7ee:	cf 91       	pop	r28
     7f0:	1f 91       	pop	r17
     7f2:	0f 91       	pop	r16
     7f4:	ff 90       	pop	r15
     7f6:	ef 90       	pop	r14
     7f8:	df 90       	pop	r13
     7fa:	cf 90       	pop	r12
     7fc:	bf 90       	pop	r11
     7fe:	af 90       	pop	r10
     800:	9f 90       	pop	r9
     802:	8f 90       	pop	r8
     804:	7f 90       	pop	r7
     806:	08 95       	ret
     808:	82 e0       	ldi	r24, 0x02	; 2
     80a:	f8 01       	movw	r30, r16
     80c:	86 83       	std	Z+6, r24	; 0x06
     80e:	c8 01       	movw	r24, r16
     810:	f5 01       	movw	r30, r10
     812:	09 95       	icall
     814:	81 e0       	ldi	r24, 0x01	; 1
     816:	f8 01       	movw	r30, r16
     818:	86 83       	std	Z+6, r24	; 0x06
     81a:	f5 01       	movw	r30, r10
     81c:	fa 2c       	mov	r15, r10
     81e:	ef 2e       	mov	r14, r31
     820:	81 2c       	mov	r8, r1
     822:	0c c0       	rjmp	.+24     	; 0x83c <QHsm_dispatch_+0x1fe>
     824:	e8 2d       	mov	r30, r8
     826:	ee 0f       	add	r30, r30
     828:	ff 0b       	sbc	r31, r31
     82a:	81 e0       	ldi	r24, 0x01	; 1
     82c:	90 e0       	ldi	r25, 0x00	; 0
     82e:	8c 0f       	add	r24, r28
     830:	9d 1f       	adc	r25, r29
     832:	e8 0f       	add	r30, r24
     834:	f9 1f       	adc	r31, r25
     836:	01 90       	ld	r0, Z+
     838:	f0 81       	ld	r31, Z
     83a:	e0 2d       	mov	r30, r0
     83c:	c8 01       	movw	r24, r16
     83e:	09 95       	icall
     840:	8a 94       	dec	r8
     842:	87 fe       	sbrs	r8, 7
     844:	ef cf       	rjmp	.-34     	; 0x824 <QHsm_dispatch_+0x1e6>
     846:	cf 2c       	mov	r12, r15
     848:	de 2c       	mov	r13, r14
     84a:	d8 01       	movw	r26, r16
     84c:	15 96       	adiw	r26, 0x05	; 5
     84e:	dc 92       	st	X, r13
     850:	ce 92       	st	-X, r12
     852:	14 97       	sbiw	r26, 0x04	; 4
     854:	83 e0       	ldi	r24, 0x03	; 3
     856:	16 96       	adiw	r26, 0x06	; 6
     858:	8c 93       	st	X, r24
     85a:	aa 24       	eor	r10, r10
     85c:	a3 94       	inc	r10
     85e:	93 e0       	ldi	r25, 0x03	; 3
     860:	b9 2e       	mov	r11, r25
     862:	c8 01       	movw	r24, r16
     864:	f6 01       	movw	r30, r12
     866:	09 95       	icall
     868:	88 30       	cpi	r24, 0x08	; 8
     86a:	09 f0       	breq	.+2      	; 0x86e <QHsm_dispatch_+0x230>
     86c:	b0 cf       	rjmp	.-160    	; 0x7ce <QHsm_dispatch_+0x190>
     86e:	f8 01       	movw	r30, r16
     870:	84 80       	ldd	r8, Z+4	; 0x04
     872:	95 80       	ldd	r9, Z+5	; 0x05
     874:	9a 82       	std	Y+2, r9	; 0x02
     876:	89 82       	std	Y+1, r8	; 0x01
     878:	16 82       	std	Z+6, r1	; 0x06
     87a:	c8 01       	movw	r24, r16
     87c:	f4 01       	movw	r30, r8
     87e:	09 95       	icall
     880:	d8 01       	movw	r26, r16
     882:	14 96       	adiw	r26, 0x04	; 4
     884:	ed 90       	ld	r14, X+
     886:	fc 90       	ld	r15, X
     888:	15 97       	sbiw	r26, 0x05	; 5
     88a:	ec 14       	cp	r14, r12
     88c:	fd 04       	cpc	r15, r13
     88e:	09 f4       	brne	.+2      	; 0x892 <QHsm_dispatch_+0x254>
     890:	5a c0       	rjmp	.+180    	; 0x946 <__stack+0x47>
     892:	91 2c       	mov	r9, r1
     894:	01 c0       	rjmp	.+2      	; 0x898 <QHsm_dispatch_+0x25a>
     896:	7c 01       	movw	r14, r24
     898:	93 94       	inc	r9
     89a:	a9 2d       	mov	r26, r9
     89c:	aa 0f       	add	r26, r26
     89e:	bb 0b       	sbc	r27, r27
     8a0:	e1 e0       	ldi	r30, 0x01	; 1
     8a2:	f0 e0       	ldi	r31, 0x00	; 0
     8a4:	ec 0f       	add	r30, r28
     8a6:	fd 1f       	adc	r31, r29
     8a8:	ae 0f       	add	r26, r30
     8aa:	bf 1f       	adc	r27, r31
     8ac:	ed 92       	st	X+, r14
     8ae:	fc 92       	st	X, r15
     8b0:	c8 01       	movw	r24, r16
     8b2:	f7 01       	movw	r30, r14
     8b4:	09 95       	icall
     8b6:	d8 01       	movw	r26, r16
     8b8:	14 96       	adiw	r26, 0x04	; 4
     8ba:	8d 91       	ld	r24, X+
     8bc:	9c 91       	ld	r25, X
     8be:	15 97       	sbiw	r26, 0x05	; 5
     8c0:	8c 15       	cp	r24, r12
     8c2:	9d 05       	cpc	r25, r13
     8c4:	41 f7       	brne	.-48     	; 0x896 <QHsm_dispatch_+0x258>
     8c6:	79 80       	ldd	r7, Y+1	; 0x01
     8c8:	8a 80       	ldd	r8, Y+2	; 0x02
     8ca:	f8 01       	movw	r30, r16
     8cc:	74 82       	std	Z+4, r7	; 0x04
     8ce:	85 82       	std	Z+5, r8	; 0x05
     8d0:	f4 e0       	ldi	r31, 0x04	; 4
     8d2:	f9 15       	cp	r31, r9
     8d4:	dc f0       	brlt	.+54     	; 0x90c <__stack+0xd>
     8d6:	f7 01       	movw	r30, r14
     8d8:	c7 2c       	mov	r12, r7
     8da:	d8 2c       	mov	r13, r8
     8dc:	d8 01       	movw	r26, r16
     8de:	16 96       	adiw	r26, 0x06	; 6
     8e0:	ac 92       	st	X, r10
     8e2:	0b c0       	rjmp	.+22     	; 0x8fa <QHsm_dispatch_+0x2bc>
     8e4:	a9 2d       	mov	r26, r9
     8e6:	aa 0f       	add	r26, r26
     8e8:	bb 0b       	sbc	r27, r27
     8ea:	e1 e0       	ldi	r30, 0x01	; 1
     8ec:	f0 e0       	ldi	r31, 0x00	; 0
     8ee:	ec 0f       	add	r30, r28
     8f0:	fd 1f       	adc	r31, r29
     8f2:	ae 0f       	add	r26, r30
     8f4:	bf 1f       	adc	r27, r31
     8f6:	ed 91       	ld	r30, X+
     8f8:	fc 91       	ld	r31, X
     8fa:	c8 01       	movw	r24, r16
     8fc:	09 95       	icall
     8fe:	9a 94       	dec	r9
     900:	97 fe       	sbrs	r9, 7
     902:	f0 cf       	rjmp	.-32     	; 0x8e4 <QHsm_dispatch_+0x2a6>
     904:	d8 01       	movw	r26, r16
     906:	16 96       	adiw	r26, 0x06	; 6
     908:	bc 92       	st	X, r11
     90a:	ab cf       	rjmp	.-170    	; 0x862 <QHsm_dispatch_+0x224>
     90c:	6a e9       	ldi	r22, 0x9A	; 154
     90e:	71 e0       	ldi	r23, 0x01	; 1
     910:	82 e7       	ldi	r24, 0x72	; 114
     912:	90 e0       	ldi	r25, 0x00	; 0
     914:	0e 94 5b 02 	call	0x4b6	; 0x4b6 <Q_onAssert>
     918:	f7 01       	movw	r30, r14
     91a:	c7 2c       	mov	r12, r7
     91c:	d8 2c       	mov	r13, r8
     91e:	de cf       	rjmp	.-68     	; 0x8dc <QHsm_dispatch_+0x29e>
     920:	b4 e0       	ldi	r27, 0x04	; 4
     922:	b9 15       	cp	r27, r9
     924:	cc f0       	brlt	.+50     	; 0x958 <__stack+0x59>
     926:	81 e0       	ldi	r24, 0x01	; 1
     928:	f8 01       	movw	r30, r16
     92a:	86 83       	std	Z+6, r24	; 0x06
     92c:	87 fc       	sbrc	r8, 7
     92e:	1e c0       	rjmp	.+60     	; 0x96c <__stack+0x6d>
     930:	f9 80       	ldd	r15, Y+1	; 0x01
     932:	ea 80       	ldd	r14, Y+2	; 0x02
     934:	e8 2d       	mov	r30, r8
     936:	ee 0f       	add	r30, r30
     938:	ff 0b       	sbc	r31, r31
     93a:	ea 0d       	add	r30, r10
     93c:	fb 1d       	adc	r31, r11
     93e:	01 90       	ld	r0, Z+
     940:	f0 81       	ld	r31, Z
     942:	e0 2d       	mov	r30, r0
     944:	7b cf       	rjmp	.-266    	; 0x83c <QHsm_dispatch_+0x1fe>
     946:	d8 01       	movw	r26, r16
     948:	15 96       	adiw	r26, 0x05	; 5
     94a:	9c 92       	st	X, r9
     94c:	8e 92       	st	-X, r8
     94e:	14 97       	sbiw	r26, 0x04	; 4
     950:	64 01       	movw	r12, r8
     952:	f4 01       	movw	r30, r8
     954:	91 2c       	mov	r9, r1
     956:	c2 cf       	rjmp	.-124    	; 0x8dc <QHsm_dispatch_+0x29e>
     958:	6e ef       	ldi	r22, 0xFE	; 254
     95a:	71 e0       	ldi	r23, 0x01	; 1
     95c:	82 e7       	ldi	r24, 0x72	; 114
     95e:	90 e0       	ldi	r25, 0x00	; 0
     960:	0e 94 5b 02 	call	0x4b6	; 0x4b6 <Q_onAssert>
     964:	e0 cf       	rjmp	.-64     	; 0x926 <__stack+0x27>
     966:	9c 2d       	mov	r25, r12
     968:	8d 2d       	mov	r24, r13
     96a:	98 ce       	rjmp	.-720    	; 0x69c <QHsm_dispatch_+0x5e>
     96c:	c9 80       	ldd	r12, Y+1	; 0x01
     96e:	da 80       	ldd	r13, Y+2	; 0x02
     970:	6c cf       	rjmp	.-296    	; 0x84a <QHsm_dispatch_+0x20c>
     972:	99 24       	eor	r9, r9
     974:	93 94       	inc	r9
     976:	ce 01       	movw	r24, r28
     978:	01 96       	adiw	r24, 0x01	; 1
     97a:	5c 01       	movw	r10, r24
     97c:	82 e0       	ldi	r24, 0x02	; 2
     97e:	d8 01       	movw	r26, r16
     980:	16 96       	adiw	r26, 0x06	; 6
     982:	8c 93       	st	X, r24
     984:	c8 01       	movw	r24, r16
     986:	f7 01       	movw	r30, r14
     988:	09 95       	icall
     98a:	89 2c       	mov	r8, r9
     98c:	e8 2d       	mov	r30, r8
     98e:	ee 0f       	add	r30, r30
     990:	ff 0b       	sbc	r31, r31
     992:	ea 0d       	add	r30, r10
     994:	fb 1d       	adc	r31, r11
     996:	80 81       	ld	r24, Z
     998:	91 81       	ldd	r25, Z+1	; 0x01
     99a:	8a 94       	dec	r8
     99c:	c8 16       	cp	r12, r24
     99e:	d9 06       	cpc	r13, r25
     9a0:	11 f2       	breq	.-124    	; 0x926 <__stack+0x27>
     9a2:	87 fe       	sbrs	r8, 7
     9a4:	f3 cf       	rjmp	.-26     	; 0x98c <__stack+0x8d>
     9a6:	22 e0       	ldi	r18, 0x02	; 2
     9a8:	f2 2e       	mov	r15, r18
     9aa:	d8 01       	movw	r26, r16
     9ac:	16 96       	adiw	r26, 0x06	; 6
     9ae:	fc 92       	st	X, r15
     9b0:	c8 01       	movw	r24, r16
     9b2:	f6 01       	movw	r30, r12
     9b4:	09 95       	icall
     9b6:	83 30       	cpi	r24, 0x03	; 3
     9b8:	99 f1       	breq	.+102    	; 0xa20 <__stack+0x121>
     9ba:	d8 01       	movw	r26, r16
     9bc:	14 96       	adiw	r26, 0x04	; 4
     9be:	cd 90       	ld	r12, X+
     9c0:	dc 90       	ld	r13, X
     9c2:	15 97       	sbiw	r26, 0x05	; 5
     9c4:	89 2d       	mov	r24, r9
     9c6:	03 c0       	rjmp	.+6      	; 0x9ce <__stack+0xcf>
     9c8:	81 50       	subi	r24, 0x01	; 1
     9ca:	87 fd       	sbrc	r24, 7
     9cc:	ee cf       	rjmp	.-36     	; 0x9aa <__stack+0xab>
     9ce:	a8 2f       	mov	r26, r24
     9d0:	aa 0f       	add	r26, r26
     9d2:	bb 0b       	sbc	r27, r27
     9d4:	aa 0d       	add	r26, r10
     9d6:	bb 1d       	adc	r27, r11
     9d8:	2d 91       	ld	r18, X+
     9da:	3c 91       	ld	r19, X
     9dc:	c2 16       	cp	r12, r18
     9de:	d3 06       	cpc	r13, r19
     9e0:	99 f7       	brne	.-26     	; 0x9c8 <__stack+0xc9>
     9e2:	88 24       	eor	r8, r8
     9e4:	8a 94       	dec	r8
     9e6:	88 0e       	add	r8, r24
     9e8:	9e cf       	rjmp	.-196    	; 0x926 <__stack+0x27>
     9ea:	82 e0       	ldi	r24, 0x02	; 2
     9ec:	16 96       	adiw	r26, 0x06	; 6
     9ee:	8c 93       	st	X, r24
     9f0:	c8 01       	movw	r24, r16
     9f2:	f7 01       	movw	r30, r14
     9f4:	09 95       	icall
     9f6:	0e cf       	rjmp	.-484    	; 0x814 <QHsm_dispatch_+0x1d6>
     9f8:	e4 e0       	ldi	r30, 0x04	; 4
     9fa:	e9 15       	cp	r30, r9
     9fc:	0c f0       	brlt	.+2      	; 0xa00 <__stack+0x101>
     9fe:	be cf       	rjmp	.-132    	; 0x97c <__stack+0x7d>
     a00:	68 e0       	ldi	r22, 0x08	; 8
     a02:	72 e0       	ldi	r23, 0x02	; 2
     a04:	82 e7       	ldi	r24, 0x72	; 114
     a06:	90 e0       	ldi	r25, 0x00	; 0
     a08:	0e 94 5b 02 	call	0x4b6	; 0x4b6 <Q_onAssert>
     a0c:	b7 cf       	rjmp	.-146    	; 0x97c <__stack+0x7d>
     a0e:	82 e0       	ldi	r24, 0x02	; 2
     a10:	d8 01       	movw	r26, r16
     a12:	16 96       	adiw	r26, 0x06	; 6
     a14:	8c 93       	st	X, r24
     a16:	c8 01       	movw	r24, r16
     a18:	f7 01       	movw	r30, r14
     a1a:	09 95       	icall
     a1c:	65 01       	movw	r12, r10
     a1e:	15 cf       	rjmp	.-470    	; 0x84a <QHsm_dispatch_+0x20c>
     a20:	d8 01       	movw	r26, r16
     a22:	16 96       	adiw	r26, 0x06	; 6
     a24:	1c 92       	st	X, r1
     a26:	c8 01       	movw	r24, r16
     a28:	f6 01       	movw	r30, r12
     a2a:	09 95       	icall
     a2c:	c6 cf       	rjmp	.-116    	; 0x9ba <__stack+0xbb>

00000a2e <QHsm_ctor>:
     a2e:	fc 01       	movw	r30, r24
     a30:	83 e0       	ldi	r24, 0x03	; 3
     a32:	91 e0       	ldi	r25, 0x01	; 1
     a34:	91 83       	std	Z+1, r25	; 0x01
     a36:	80 83       	st	Z, r24
     a38:	8f e5       	ldi	r24, 0x5F	; 95
     a3a:	92 e0       	ldi	r25, 0x02	; 2
     a3c:	93 83       	std	Z+3, r25	; 0x03
     a3e:	82 83       	std	Z+2, r24	; 0x02
     a40:	75 83       	std	Z+5, r23	; 0x05
     a42:	64 83       	std	Z+4, r22	; 0x04
     a44:	08 95       	ret

00000a46 <QActive_postX_>:
     a46:	cf 93       	push	r28
     a48:	df 93       	push	r29
     a4a:	dc 01       	movw	r26, r24
     a4c:	1c 96       	adiw	r26, 0x0c	; 12
     a4e:	ec 91       	ld	r30, X
     a50:	1c 97       	sbiw	r26, 0x0c	; 12
     a52:	f0 e0       	ldi	r31, 0x00	; 0
     a54:	cf 01       	movw	r24, r30
     a56:	88 0f       	add	r24, r24
     a58:	99 1f       	adc	r25, r25
     a5a:	88 0f       	add	r24, r24
     a5c:	99 1f       	adc	r25, r25
     a5e:	8e 0f       	add	r24, r30
     a60:	9f 1f       	adc	r25, r31
     a62:	88 59       	subi	r24, 0x98	; 152
     a64:	9f 4f       	sbci	r25, 0xFF	; 255
     a66:	fc 01       	movw	r30, r24
     a68:	34 96       	adiw	r30, 0x04	; 4
     a6a:	34 91       	lpm	r19, Z
     a6c:	f8 94       	cli
     a6e:	6f 3f       	cpi	r22, 0xFF	; 255
     a70:	09 f4       	brne	.+2      	; 0xa74 <QActive_postX_+0x2e>
     a72:	3d c0       	rjmp	.+122    	; 0xaee <QActive_postX_+0xa8>
     a74:	c3 2f       	mov	r28, r19
     a76:	d0 e0       	ldi	r29, 0x00	; 0
     a78:	1f 96       	adiw	r26, 0x0f	; 15
     a7a:	5c 91       	ld	r21, X
     a7c:	1f 97       	sbiw	r26, 0x0f	; 15
     a7e:	c5 1b       	sub	r28, r21
     a80:	d1 09       	sbc	r29, r1
     a82:	70 e0       	ldi	r23, 0x00	; 0
     a84:	6c 17       	cp	r22, r28
     a86:	7d 07       	cpc	r23, r29
     a88:	0c f0       	brlt	.+2      	; 0xa8c <QActive_postX_+0x46>
     a8a:	3c c0       	rjmp	.+120    	; 0xb04 <QActive_postX_+0xbe>
     a8c:	1d 96       	adiw	r26, 0x0d	; 13
     a8e:	cc 91       	ld	r28, X
     a90:	1d 97       	sbiw	r26, 0x0d	; 13
     a92:	02 96       	adiw	r24, 0x02	; 2
     a94:	fc 01       	movw	r30, r24
     a96:	65 91       	lpm	r22, Z+
     a98:	74 91       	lpm	r23, Z
     a9a:	d0 e0       	ldi	r29, 0x00	; 0
     a9c:	cc 0f       	add	r28, r28
     a9e:	dd 1f       	adc	r29, r29
     aa0:	c6 0f       	add	r28, r22
     aa2:	d7 1f       	adc	r29, r23
     aa4:	48 83       	st	Y, r20
     aa6:	1d 96       	adiw	r26, 0x0d	; 13
     aa8:	cc 91       	ld	r28, X
     aaa:	1d 97       	sbiw	r26, 0x0d	; 13
     aac:	fc 01       	movw	r30, r24
     aae:	85 91       	lpm	r24, Z+
     ab0:	94 91       	lpm	r25, Z
     ab2:	d0 e0       	ldi	r29, 0x00	; 0
     ab4:	cc 0f       	add	r28, r28
     ab6:	dd 1f       	adc	r29, r29
     ab8:	c8 0f       	add	r28, r24
     aba:	d9 1f       	adc	r29, r25
     abc:	29 83       	std	Y+1, r18	; 0x01
     abe:	1d 96       	adiw	r26, 0x0d	; 13
     ac0:	ec 91       	ld	r30, X
     ac2:	1d 97       	sbiw	r26, 0x0d	; 13
     ac4:	e1 11       	cpse	r30, r1
     ac6:	01 c0       	rjmp	.+2      	; 0xaca <QActive_postX_+0x84>
     ac8:	e3 2f       	mov	r30, r19
     aca:	e1 50       	subi	r30, 0x01	; 1
     acc:	1d 96       	adiw	r26, 0x0d	; 13
     ace:	ec 93       	st	X, r30
     ad0:	1d 97       	sbiw	r26, 0x0d	; 13
     ad2:	1f 96       	adiw	r26, 0x0f	; 15
     ad4:	8c 91       	ld	r24, X
     ad6:	1f 97       	sbiw	r26, 0x0f	; 15
     ad8:	8f 5f       	subi	r24, 0xFF	; 255
     ada:	1f 96       	adiw	r26, 0x0f	; 15
     adc:	8c 93       	st	X, r24
     ade:	1f 97       	sbiw	r26, 0x0f	; 15
     ae0:	81 30       	cpi	r24, 0x01	; 1
     ae2:	a9 f0       	breq	.+42     	; 0xb0e <QActive_postX_+0xc8>
     ae4:	81 e0       	ldi	r24, 0x01	; 1
     ae6:	78 94       	sei
     ae8:	df 91       	pop	r29
     aea:	cf 91       	pop	r28
     aec:	08 95       	ret
     aee:	1f 96       	adiw	r26, 0x0f	; 15
     af0:	5c 91       	ld	r21, X
     af2:	1f 97       	sbiw	r26, 0x0f	; 15
     af4:	53 17       	cp	r21, r19
     af6:	50 f2       	brcs	.-108    	; 0xa8c <QActive_postX_+0x46>
     af8:	66 e3       	ldi	r22, 0x36	; 54
     afa:	71 e0       	ldi	r23, 0x01	; 1
     afc:	87 e8       	ldi	r24, 0x87	; 135
     afe:	90 e0       	ldi	r25, 0x00	; 0
     b00:	0e 94 5b 02 	call	0x4b6	; 0x4b6 <Q_onAssert>
     b04:	80 e0       	ldi	r24, 0x00	; 0
     b06:	78 94       	sei
     b08:	df 91       	pop	r29
     b0a:	cf 91       	pop	r28
     b0c:	08 95       	ret
     b0e:	20 91 4c 01 	lds	r18, 0x014C
     b12:	1c 96       	adiw	r26, 0x0c	; 12
     b14:	3c 91       	ld	r19, X
     b16:	31 50       	subi	r19, 0x01	; 1
     b18:	81 e0       	ldi	r24, 0x01	; 1
     b1a:	90 e0       	ldi	r25, 0x00	; 0
     b1c:	03 2e       	mov	r0, r19
     b1e:	01 c0       	rjmp	.+2      	; 0xb22 <QActive_postX_+0xdc>
     b20:	88 0f       	add	r24, r24
     b22:	0a 94       	dec	r0
     b24:	ea f7       	brpl	.-6      	; 0xb20 <QActive_postX_+0xda>
     b26:	28 2b       	or	r18, r24
     b28:	20 93 4c 01 	sts	0x014C, r18
     b2c:	81 e0       	ldi	r24, 0x01	; 1
     b2e:	78 94       	sei
     b30:	df 91       	pop	r29
     b32:	cf 91       	pop	r28
     b34:	08 95       	ret

00000b36 <QActive_postXISR_>:
     b36:	cf 93       	push	r28
     b38:	df 93       	push	r29
     b3a:	dc 01       	movw	r26, r24
     b3c:	1c 96       	adiw	r26, 0x0c	; 12
     b3e:	ec 91       	ld	r30, X
     b40:	1c 97       	sbiw	r26, 0x0c	; 12
     b42:	f0 e0       	ldi	r31, 0x00	; 0
     b44:	cf 01       	movw	r24, r30
     b46:	88 0f       	add	r24, r24
     b48:	99 1f       	adc	r25, r25
     b4a:	88 0f       	add	r24, r24
     b4c:	99 1f       	adc	r25, r25
     b4e:	8e 0f       	add	r24, r30
     b50:	9f 1f       	adc	r25, r31
     b52:	88 59       	subi	r24, 0x98	; 152
     b54:	9f 4f       	sbci	r25, 0xFF	; 255
     b56:	fc 01       	movw	r30, r24
     b58:	34 96       	adiw	r30, 0x04	; 4
     b5a:	34 91       	lpm	r19, Z
     b5c:	6f 3f       	cpi	r22, 0xFF	; 255
     b5e:	09 f4       	brne	.+2      	; 0xb62 <QActive_postXISR_+0x2c>
     b60:	3c c0       	rjmp	.+120    	; 0xbda <QActive_postXISR_+0xa4>
     b62:	c3 2f       	mov	r28, r19
     b64:	d0 e0       	ldi	r29, 0x00	; 0
     b66:	1f 96       	adiw	r26, 0x0f	; 15
     b68:	5c 91       	ld	r21, X
     b6a:	1f 97       	sbiw	r26, 0x0f	; 15
     b6c:	c5 1b       	sub	r28, r21
     b6e:	d1 09       	sbc	r29, r1
     b70:	70 e0       	ldi	r23, 0x00	; 0
     b72:	6c 17       	cp	r22, r28
     b74:	7d 07       	cpc	r23, r29
     b76:	0c f0       	brlt	.+2      	; 0xb7a <QActive_postXISR_+0x44>
     b78:	3b c0       	rjmp	.+118    	; 0xbf0 <QActive_postXISR_+0xba>
     b7a:	1d 96       	adiw	r26, 0x0d	; 13
     b7c:	cc 91       	ld	r28, X
     b7e:	1d 97       	sbiw	r26, 0x0d	; 13
     b80:	02 96       	adiw	r24, 0x02	; 2
     b82:	fc 01       	movw	r30, r24
     b84:	65 91       	lpm	r22, Z+
     b86:	74 91       	lpm	r23, Z
     b88:	d0 e0       	ldi	r29, 0x00	; 0
     b8a:	cc 0f       	add	r28, r28
     b8c:	dd 1f       	adc	r29, r29
     b8e:	c6 0f       	add	r28, r22
     b90:	d7 1f       	adc	r29, r23
     b92:	48 83       	st	Y, r20
     b94:	1d 96       	adiw	r26, 0x0d	; 13
     b96:	cc 91       	ld	r28, X
     b98:	1d 97       	sbiw	r26, 0x0d	; 13
     b9a:	fc 01       	movw	r30, r24
     b9c:	85 91       	lpm	r24, Z+
     b9e:	94 91       	lpm	r25, Z
     ba0:	d0 e0       	ldi	r29, 0x00	; 0
     ba2:	cc 0f       	add	r28, r28
     ba4:	dd 1f       	adc	r29, r29
     ba6:	c8 0f       	add	r28, r24
     ba8:	d9 1f       	adc	r29, r25
     baa:	29 83       	std	Y+1, r18	; 0x01
     bac:	1d 96       	adiw	r26, 0x0d	; 13
     bae:	ec 91       	ld	r30, X
     bb0:	1d 97       	sbiw	r26, 0x0d	; 13
     bb2:	e1 11       	cpse	r30, r1
     bb4:	01 c0       	rjmp	.+2      	; 0xbb8 <QActive_postXISR_+0x82>
     bb6:	e3 2f       	mov	r30, r19
     bb8:	e1 50       	subi	r30, 0x01	; 1
     bba:	1d 96       	adiw	r26, 0x0d	; 13
     bbc:	ec 93       	st	X, r30
     bbe:	1d 97       	sbiw	r26, 0x0d	; 13
     bc0:	1f 96       	adiw	r26, 0x0f	; 15
     bc2:	8c 91       	ld	r24, X
     bc4:	1f 97       	sbiw	r26, 0x0f	; 15
     bc6:	8f 5f       	subi	r24, 0xFF	; 255
     bc8:	1f 96       	adiw	r26, 0x0f	; 15
     bca:	8c 93       	st	X, r24
     bcc:	1f 97       	sbiw	r26, 0x0f	; 15
     bce:	81 30       	cpi	r24, 0x01	; 1
     bd0:	99 f0       	breq	.+38     	; 0xbf8 <QActive_postXISR_+0xc2>
     bd2:	81 e0       	ldi	r24, 0x01	; 1
     bd4:	df 91       	pop	r29
     bd6:	cf 91       	pop	r28
     bd8:	08 95       	ret
     bda:	1f 96       	adiw	r26, 0x0f	; 15
     bdc:	5c 91       	ld	r21, X
     bde:	1f 97       	sbiw	r26, 0x0f	; 15
     be0:	53 17       	cp	r21, r19
     be2:	58 f2       	brcs	.-106    	; 0xb7a <QActive_postXISR_+0x44>
     be4:	66 e3       	ldi	r22, 0x36	; 54
     be6:	71 e0       	ldi	r23, 0x01	; 1
     be8:	87 e8       	ldi	r24, 0x87	; 135
     bea:	90 e0       	ldi	r25, 0x00	; 0
     bec:	0e 94 5b 02 	call	0x4b6	; 0x4b6 <Q_onAssert>
     bf0:	80 e0       	ldi	r24, 0x00	; 0
     bf2:	df 91       	pop	r29
     bf4:	cf 91       	pop	r28
     bf6:	08 95       	ret
     bf8:	20 91 4c 01 	lds	r18, 0x014C
     bfc:	1c 96       	adiw	r26, 0x0c	; 12
     bfe:	3c 91       	ld	r19, X
     c00:	31 50       	subi	r19, 0x01	; 1
     c02:	81 e0       	ldi	r24, 0x01	; 1
     c04:	90 e0       	ldi	r25, 0x00	; 0
     c06:	03 2e       	mov	r0, r19
     c08:	01 c0       	rjmp	.+2      	; 0xc0c <QActive_postXISR_+0xd6>
     c0a:	88 0f       	add	r24, r24
     c0c:	0a 94       	dec	r0
     c0e:	ea f7       	brpl	.-6      	; 0xc0a <QActive_postXISR_+0xd4>
     c10:	28 2b       	or	r18, r24
     c12:	20 93 4c 01 	sts	0x014C, r18
     c16:	81 e0       	ldi	r24, 0x01	; 1
     c18:	df 91       	pop	r29
     c1a:	cf 91       	pop	r28
     c1c:	08 95       	ret

00000c1e <QActive_ctor>:
     c1e:	cf 93       	push	r28
     c20:	df 93       	push	r29
     c22:	ec 01       	movw	r28, r24
     c24:	0e 94 17 05 	call	0xa2e	; 0xa2e <QHsm_ctor>
     c28:	87 e0       	ldi	r24, 0x07	; 7
     c2a:	91 e0       	ldi	r25, 0x01	; 1
     c2c:	99 83       	std	Y+1, r25	; 0x01
     c2e:	88 83       	st	Y, r24
     c30:	df 91       	pop	r29
     c32:	cf 91       	pop	r28
     c34:	08 95       	ret

00000c36 <QF_init>:
     c36:	1f 93       	push	r17
     c38:	cf 93       	push	r28
     c3a:	df 93       	push	r29
     c3c:	c8 2f       	mov	r28, r24
     c3e:	8e ef       	ldi	r24, 0xFE	; 254
     c40:	8c 0f       	add	r24, r28
     c42:	88 30       	cpi	r24, 0x08	; 8
     c44:	78 f5       	brcc	.+94     	; 0xca4 <QF_init+0x6e>
     c46:	8f ef       	ldi	r24, 0xFF	; 255
     c48:	8c 0f       	add	r24, r28
     c4a:	80 93 4b 01 	sts	0x014B, r24
     c4e:	10 92 4c 01 	sts	0x014C, r1
     c52:	88 23       	and	r24, r24
     c54:	d1 f0       	breq	.+52     	; 0xc8a <QF_init+0x54>
     c56:	11 e0       	ldi	r17, 0x01	; 1
     c58:	21 2f       	mov	r18, r17
     c5a:	30 e0       	ldi	r19, 0x00	; 0
     c5c:	f9 01       	movw	r30, r18
     c5e:	ee 0f       	add	r30, r30
     c60:	ff 1f       	adc	r31, r31
     c62:	ee 0f       	add	r30, r30
     c64:	ff 1f       	adc	r31, r31
     c66:	e2 0f       	add	r30, r18
     c68:	f3 1f       	adc	r31, r19
     c6a:	e8 59       	subi	r30, 0x98	; 152
     c6c:	ff 4f       	sbci	r31, 0xFF	; 255
     c6e:	c5 91       	lpm	r28, Z+
     c70:	d4 91       	lpm	r29, Z
     c72:	20 97       	sbiw	r28, 0x00	; 0
     c74:	71 f0       	breq	.+28     	; 0xc92 <QF_init+0x5c>
     c76:	1d 86       	std	Y+13, r1	; 0x0d
     c78:	1e 86       	std	Y+14, r1	; 0x0e
     c7a:	1f 86       	std	Y+15, r1	; 0x0f
     c7c:	19 86       	std	Y+9, r1	; 0x09
     c7e:	18 86       	std	Y+8, r1	; 0x08
     c80:	1b 86       	std	Y+11, r1	; 0x0b
     c82:	1a 86       	std	Y+10, r1	; 0x0a
     c84:	1f 5f       	subi	r17, 0xFF	; 255
     c86:	81 17       	cp	r24, r17
     c88:	38 f7       	brcc	.-50     	; 0xc58 <QF_init+0x22>
     c8a:	df 91       	pop	r29
     c8c:	cf 91       	pop	r28
     c8e:	1f 91       	pop	r17
     c90:	08 95       	ret
     c92:	6e e6       	ldi	r22, 0x6E	; 110
     c94:	70 e0       	ldi	r23, 0x00	; 0
     c96:	87 e8       	ldi	r24, 0x87	; 135
     c98:	90 e0       	ldi	r25, 0x00	; 0
     c9a:	0e 94 5b 02 	call	0x4b6	; 0x4b6 <Q_onAssert>
     c9e:	80 91 4b 01 	lds	r24, 0x014B
     ca2:	e9 cf       	rjmp	.-46     	; 0xc76 <QF_init+0x40>
     ca4:	64 e6       	ldi	r22, 0x64	; 100
     ca6:	70 e0       	ldi	r23, 0x00	; 0
     ca8:	87 e8       	ldi	r24, 0x87	; 135
     caa:	90 e0       	ldi	r25, 0x00	; 0
     cac:	0e 94 5b 02 	call	0x4b6	; 0x4b6 <Q_onAssert>
     cb0:	ca cf       	rjmp	.-108    	; 0xc46 <QF_init+0x10>

00000cb2 <QF_tickXISR>:
     cb2:	ff 92       	push	r15
     cb4:	0f 93       	push	r16
     cb6:	1f 93       	push	r17
     cb8:	cf 93       	push	r28
     cba:	df 93       	push	r29
     cbc:	f0 90 4b 01 	lds	r15, 0x014B
     cc0:	08 2f       	mov	r16, r24
     cc2:	10 e0       	ldi	r17, 0x00	; 0
     cc4:	e8 01       	movw	r28, r16
     cc6:	22 96       	adiw	r28, 0x02	; 2
     cc8:	cc 0f       	add	r28, r28
     cca:	dd 1f       	adc	r29, r29
     ccc:	cc 0f       	add	r28, r28
     cce:	dd 1f       	adc	r29, r29
     cd0:	0c 5f       	subi	r16, 0xFC	; 252
     cd2:	1f 4f       	sbci	r17, 0xFF	; 255
     cd4:	2f 2d       	mov	r18, r15
     cd6:	30 e0       	ldi	r19, 0x00	; 0
     cd8:	f9 01       	movw	r30, r18
     cda:	ee 0f       	add	r30, r30
     cdc:	ff 1f       	adc	r31, r31
     cde:	ee 0f       	add	r30, r30
     ce0:	ff 1f       	adc	r31, r31
     ce2:	e2 0f       	add	r30, r18
     ce4:	f3 1f       	adc	r31, r19
     ce6:	e8 59       	subi	r30, 0x98	; 152
     ce8:	ff 4f       	sbci	r31, 0xFF	; 255
     cea:	85 91       	lpm	r24, Z+
     cec:	94 91       	lpm	r25, Z
     cee:	fc 01       	movw	r30, r24
     cf0:	ec 0f       	add	r30, r28
     cf2:	fd 1f       	adc	r31, r29
     cf4:	20 81       	ld	r18, Z
     cf6:	31 81       	ldd	r19, Z+1	; 0x01
     cf8:	21 15       	cp	r18, r1
     cfa:	31 05       	cpc	r19, r1
     cfc:	b9 f0       	breq	.+46     	; 0xd2c <QF_tickXISR+0x7a>
     cfe:	21 50       	subi	r18, 0x01	; 1
     d00:	31 09       	sbc	r19, r1
     d02:	31 83       	std	Z+1, r19	; 0x01
     d04:	20 83       	st	Z, r18
     d06:	23 2b       	or	r18, r19
     d08:	89 f4       	brne	.+34     	; 0xd2c <QF_tickXISR+0x7a>
     d0a:	22 81       	ldd	r18, Z+2	; 0x02
     d0c:	33 81       	ldd	r19, Z+3	; 0x03
     d0e:	21 15       	cp	r18, r1
     d10:	31 05       	cpc	r19, r1
     d12:	11 f0       	breq	.+4      	; 0xd18 <QF_tickXISR+0x66>
     d14:	31 83       	std	Z+1, r19	; 0x01
     d16:	20 83       	st	Z, r18
     d18:	dc 01       	movw	r26, r24
     d1a:	ed 91       	ld	r30, X+
     d1c:	fc 91       	ld	r31, X
     d1e:	06 80       	ldd	r0, Z+6	; 0x06
     d20:	f7 81       	ldd	r31, Z+7	; 0x07
     d22:	e0 2d       	mov	r30, r0
     d24:	20 e0       	ldi	r18, 0x00	; 0
     d26:	a8 01       	movw	r20, r16
     d28:	6f ef       	ldi	r22, 0xFF	; 255
     d2a:	09 95       	icall
     d2c:	fa 94       	dec	r15
     d2e:	91 f6       	brne	.-92     	; 0xcd4 <QF_tickXISR+0x22>
     d30:	df 91       	pop	r29
     d32:	cf 91       	pop	r28
     d34:	1f 91       	pop	r17
     d36:	0f 91       	pop	r16
     d38:	ff 90       	pop	r15
     d3a:	08 95       	ret

00000d3c <QActive_armX>:
     d3c:	f8 94       	cli
     d3e:	70 e0       	ldi	r23, 0x00	; 0
     d40:	fb 01       	movw	r30, r22
     d42:	32 96       	adiw	r30, 0x02	; 2
     d44:	ee 0f       	add	r30, r30
     d46:	ff 1f       	adc	r31, r31
     d48:	ee 0f       	add	r30, r30
     d4a:	ff 1f       	adc	r31, r31
     d4c:	e8 0f       	add	r30, r24
     d4e:	f9 1f       	adc	r31, r25
     d50:	51 83       	std	Z+1, r21	; 0x01
     d52:	40 83       	st	Z, r20
     d54:	fb 01       	movw	r30, r22
     d56:	ee 0f       	add	r30, r30
     d58:	ff 1f       	adc	r31, r31
     d5a:	ee 0f       	add	r30, r30
     d5c:	ff 1f       	adc	r31, r31
     d5e:	e8 0f       	add	r30, r24
     d60:	f9 1f       	adc	r31, r25
     d62:	33 87       	std	Z+11, r19	; 0x0b
     d64:	22 87       	std	Z+10, r18	; 0x0a
     d66:	78 94       	sei
     d68:	08 95       	ret

00000d6a <QF_run>:
     d6a:	40 91 4b 01 	lds	r20, 0x014B
     d6e:	8f ef       	ldi	r24, 0xFF	; 255
     d70:	84 0f       	add	r24, r20
     d72:	88 30       	cpi	r24, 0x08	; 8
     d74:	08 f0       	brcs	.+2      	; 0xd78 <QF_run+0xe>
     d76:	bf c0       	rjmp	.+382    	; 0xef6 <QF_run+0x18c>
     d78:	11 e0       	ldi	r17, 0x01	; 1
     d7a:	04 c0       	rjmp	.+8      	; 0xd84 <QF_run+0x1a>
     d7c:	1c 87       	std	Y+12, r17	; 0x0c
     d7e:	1f 5f       	subi	r17, 0xFF	; 255
     d80:	41 17       	cp	r20, r17
     d82:	e0 f0       	brcs	.+56     	; 0xdbc <QF_run+0x52>
     d84:	21 2f       	mov	r18, r17
     d86:	30 e0       	ldi	r19, 0x00	; 0
     d88:	c9 01       	movw	r24, r18
     d8a:	88 0f       	add	r24, r24
     d8c:	99 1f       	adc	r25, r25
     d8e:	88 0f       	add	r24, r24
     d90:	99 1f       	adc	r25, r25
     d92:	82 0f       	add	r24, r18
     d94:	93 1f       	adc	r25, r19
     d96:	88 59       	subi	r24, 0x98	; 152
     d98:	9f 4f       	sbci	r25, 0xFF	; 255
     d9a:	fc 01       	movw	r30, r24
     d9c:	c5 91       	lpm	r28, Z+
     d9e:	d4 91       	lpm	r29, Z
     da0:	20 97       	sbiw	r28, 0x00	; 0
     da2:	61 f7       	brne	.-40     	; 0xd7c <QF_run+0x12>
     da4:	6a e2       	ldi	r22, 0x2A	; 42
     da6:	73 e0       	ldi	r23, 0x03	; 3
     da8:	8b e8       	ldi	r24, 0x8B	; 139
     daa:	90 e0       	ldi	r25, 0x00	; 0
     dac:	0e 94 5b 02 	call	0x4b6	; 0x4b6 <Q_onAssert>
     db0:	40 91 4b 01 	lds	r20, 0x014B
     db4:	1c 87       	std	Y+12, r17	; 0x0c
     db6:	1f 5f       	subi	r17, 0xFF	; 255
     db8:	41 17       	cp	r20, r17
     dba:	20 f7       	brcc	.-56     	; 0xd84 <QF_run+0x1a>
     dbc:	44 23       	and	r20, r20
     dbe:	d9 f0       	breq	.+54     	; 0xdf6 <QF_run+0x8c>
     dc0:	c1 e0       	ldi	r28, 0x01	; 1
     dc2:	2c 2f       	mov	r18, r28
     dc4:	30 e0       	ldi	r19, 0x00	; 0
     dc6:	c9 01       	movw	r24, r18
     dc8:	88 0f       	add	r24, r24
     dca:	99 1f       	adc	r25, r25
     dcc:	88 0f       	add	r24, r24
     dce:	99 1f       	adc	r25, r25
     dd0:	82 0f       	add	r24, r18
     dd2:	93 1f       	adc	r25, r19
     dd4:	88 59       	subi	r24, 0x98	; 152
     dd6:	9f 4f       	sbci	r25, 0xFF	; 255
     dd8:	fc 01       	movw	r30, r24
     dda:	85 91       	lpm	r24, Z+
     ddc:	94 91       	lpm	r25, Z
     dde:	dc 01       	movw	r26, r24
     de0:	ed 91       	ld	r30, X+
     de2:	fc 91       	ld	r31, X
     de4:	01 90       	ld	r0, Z+
     de6:	f0 81       	ld	r31, Z
     de8:	e0 2d       	mov	r30, r0
     dea:	09 95       	icall
     dec:	cf 5f       	subi	r28, 0xFF	; 255
     dee:	80 91 4b 01 	lds	r24, 0x014B
     df2:	8c 17       	cp	r24, r28
     df4:	30 f7       	brcc	.-52     	; 0xdc2 <QF_run+0x58>
     df6:	0e 94 3d 02 	call	0x47a	; 0x47a <QF_onStartup>
     dfa:	f8 94       	cli
     dfc:	ee 24       	eor	r14, r14
     dfe:	e3 94       	inc	r14
     e00:	f1 2c       	mov	r15, r1
     e02:	80 91 4c 01 	lds	r24, 0x014C
     e06:	88 23       	and	r24, r24
     e08:	09 f4       	brne	.+2      	; 0xe0c <QF_run+0xa2>
     e0a:	62 c0       	rjmp	.+196    	; 0xed0 <QF_run+0x166>
     e0c:	80 91 4c 01 	lds	r24, 0x014C
     e10:	80 7f       	andi	r24, 0xF0	; 240
     e12:	e0 91 4c 01 	lds	r30, 0x014C
     e16:	88 23       	and	r24, r24
     e18:	09 f4       	brne	.+2      	; 0xe1c <QF_run+0xb2>
     e1a:	60 c0       	rjmp	.+192    	; 0xedc <QF_run+0x172>
     e1c:	e2 95       	swap	r30
     e1e:	ef 70       	andi	r30, 0x0F	; 15
     e20:	f0 e0       	ldi	r31, 0x00	; 0
     e22:	e9 58       	subi	r30, 0x89	; 137
     e24:	ff 4f       	sbci	r31, 0xFF	; 255
     e26:	e4 91       	lpm	r30, Z
     e28:	ec 5f       	subi	r30, 0xFC	; 252
     e2a:	ce 2e       	mov	r12, r30
     e2c:	d1 2c       	mov	r13, r1
     e2e:	86 01       	movw	r16, r12
     e30:	00 0f       	add	r16, r16
     e32:	11 1f       	adc	r17, r17
     e34:	00 0f       	add	r16, r16
     e36:	11 1f       	adc	r17, r17
     e38:	0c 0d       	add	r16, r12
     e3a:	1d 1d       	adc	r17, r13
     e3c:	08 59       	subi	r16, 0x98	; 152
     e3e:	1f 4f       	sbci	r17, 0xFF	; 255
     e40:	f8 01       	movw	r30, r16
     e42:	c5 91       	lpm	r28, Z+
     e44:	d4 91       	lpm	r29, Z
     e46:	8f 85       	ldd	r24, Y+15	; 0x0f
     e48:	88 23       	and	r24, r24
     e4a:	09 f4       	brne	.+2      	; 0xe4e <QF_run+0xe4>
     e4c:	4c c0       	rjmp	.+152    	; 0xee6 <QF_run+0x17c>
     e4e:	81 50       	subi	r24, 0x01	; 1
     e50:	8f 87       	std	Y+15, r24	; 0x0f
     e52:	6e 85       	ldd	r22, Y+14	; 0x0e
     e54:	86 2f       	mov	r24, r22
     e56:	90 e0       	ldi	r25, 0x00	; 0
     e58:	88 0f       	add	r24, r24
     e5a:	99 1f       	adc	r25, r25
     e5c:	98 01       	movw	r18, r16
     e5e:	2e 5f       	subi	r18, 0xFE	; 254
     e60:	3f 4f       	sbci	r19, 0xFF	; 255
     e62:	f9 01       	movw	r30, r18
     e64:	45 91       	lpm	r20, Z+
     e66:	54 91       	lpm	r21, Z
     e68:	fa 01       	movw	r30, r20
     e6a:	e8 0f       	add	r30, r24
     e6c:	f9 1f       	adc	r31, r25
     e6e:	40 81       	ld	r20, Z
     e70:	4e 83       	std	Y+6, r20	; 0x06
     e72:	f9 01       	movw	r30, r18
     e74:	25 91       	lpm	r18, Z+
     e76:	34 91       	lpm	r19, Z
     e78:	f9 01       	movw	r30, r18
     e7a:	e8 0f       	add	r30, r24
     e7c:	f9 1f       	adc	r31, r25
     e7e:	81 81       	ldd	r24, Z+1	; 0x01
     e80:	8f 83       	std	Y+7, r24	; 0x07
     e82:	61 11       	cpse	r22, r1
     e84:	29 c0       	rjmp	.+82     	; 0xed8 <QF_run+0x16e>
     e86:	f8 01       	movw	r30, r16
     e88:	34 96       	adiw	r30, 0x04	; 4
     e8a:	04 91       	lpm	r16, Z
     e8c:	01 50       	subi	r16, 0x01	; 1
     e8e:	0e 87       	std	Y+14, r16	; 0x0e
     e90:	78 94       	sei
     e92:	e8 81       	ld	r30, Y
     e94:	f9 81       	ldd	r31, Y+1	; 0x01
     e96:	02 80       	ldd	r0, Z+2	; 0x02
     e98:	f3 81       	ldd	r31, Z+3	; 0x03
     e9a:	e0 2d       	mov	r30, r0
     e9c:	ce 01       	movw	r24, r28
     e9e:	09 95       	icall
     ea0:	f8 94       	cli
     ea2:	8f 85       	ldd	r24, Y+15	; 0x0f
     ea4:	81 11       	cpse	r24, r1
     ea6:	ad cf       	rjmp	.-166    	; 0xe02 <QF_run+0x98>
     ea8:	80 91 4c 01 	lds	r24, 0x014C
     eac:	b1 e0       	ldi	r27, 0x01	; 1
     eae:	cb 1a       	sub	r12, r27
     eb0:	d1 08       	sbc	r13, r1
     eb2:	97 01       	movw	r18, r14
     eb4:	02 c0       	rjmp	.+4      	; 0xeba <QF_run+0x150>
     eb6:	22 0f       	add	r18, r18
     eb8:	33 1f       	adc	r19, r19
     eba:	ca 94       	dec	r12
     ebc:	e2 f7       	brpl	.-8      	; 0xeb6 <QF_run+0x14c>
     ebe:	69 01       	movw	r12, r18
     ec0:	c0 94       	com	r12
     ec2:	c8 22       	and	r12, r24
     ec4:	c0 92 4c 01 	sts	0x014C, r12
     ec8:	80 91 4c 01 	lds	r24, 0x014C
     ecc:	81 11       	cpse	r24, r1
     ece:	9e cf       	rjmp	.-196    	; 0xe0c <QF_run+0xa2>
     ed0:	0e 94 55 02 	call	0x4aa	; 0x4aa <QV_onIdle>
     ed4:	f8 94       	cli
     ed6:	95 cf       	rjmp	.-214    	; 0xe02 <QF_run+0x98>
     ed8:	06 2f       	mov	r16, r22
     eda:	d8 cf       	rjmp	.-80     	; 0xe8c <QF_run+0x122>
     edc:	f0 e0       	ldi	r31, 0x00	; 0
     ede:	e9 58       	subi	r30, 0x89	; 137
     ee0:	ff 4f       	sbci	r31, 0xFF	; 255
     ee2:	e4 91       	lpm	r30, Z
     ee4:	a2 cf       	rjmp	.-188    	; 0xe2a <QF_run+0xc0>
     ee6:	64 e3       	ldi	r22, 0x34	; 52
     ee8:	73 e0       	ldi	r23, 0x03	; 3
     eea:	8b e8       	ldi	r24, 0x8B	; 139
     eec:	90 e0       	ldi	r25, 0x00	; 0
     eee:	0e 94 5b 02 	call	0x4b6	; 0x4b6 <Q_onAssert>
     ef2:	8f 85       	ldd	r24, Y+15	; 0x0f
     ef4:	ac cf       	rjmp	.-168    	; 0xe4e <QF_run+0xe4>
     ef6:	64 e6       	ldi	r22, 0x64	; 100
     ef8:	70 e0       	ldi	r23, 0x00	; 0
     efa:	8b e8       	ldi	r24, 0x8B	; 139
     efc:	90 e0       	ldi	r25, 0x00	; 0
     efe:	0e 94 5b 02 	call	0x4b6	; 0x4b6 <Q_onAssert>
     f02:	40 91 4b 01 	lds	r20, 0x014B
     f06:	44 23       	and	r20, r20
     f08:	09 f4       	brne	.+2      	; 0xf0c <QF_run+0x1a2>
     f0a:	75 cf       	rjmp	.-278    	; 0xdf6 <QF_run+0x8c>
     f0c:	35 cf       	rjmp	.-406    	; 0xd78 <QF_run+0xe>

00000f0e <Sumo_evade>:
     f0e:	fc 01       	movw	r30, r24
     f10:	26 81       	ldd	r18, Z+6	; 0x06
     f12:	2c 30       	cpi	r18, 0x0C	; 12
     f14:	a1 f0       	breq	.+40     	; 0xf3e <Sumo_evade+0x30>
     f16:	2f 30       	cpi	r18, 0x0F	; 15
     f18:	59 f0       	breq	.+22     	; 0xf30 <Sumo_evade+0x22>
     f1a:	22 30       	cpi	r18, 0x02	; 2
     f1c:	39 f0       	breq	.+14     	; 0xf2c <Sumo_evade+0x1e>
     f1e:	2f ed       	ldi	r18, 0xDF	; 223
     f20:	37 e0       	ldi	r19, 0x07	; 7
     f22:	fc 01       	movw	r30, r24
     f24:	35 83       	std	Z+5, r19	; 0x05
     f26:	24 83       	std	Z+4, r18	; 0x04
     f28:	80 e0       	ldi	r24, 0x00	; 0
     f2a:	08 95       	ret
     f2c:	83 e0       	ldi	r24, 0x03	; 3
     f2e:	08 95       	ret
     f30:	28 e5       	ldi	r18, 0x58	; 88
     f32:	38 e0       	ldi	r19, 0x08	; 8
     f34:	fc 01       	movw	r30, r24
     f36:	35 83       	std	Z+5, r19	; 0x05
     f38:	24 83       	std	Z+4, r18	; 0x04
     f3a:	88 e0       	ldi	r24, 0x08	; 8
     f3c:	08 95       	ret
     f3e:	2e e0       	ldi	r18, 0x0E	; 14
     f40:	39 e0       	ldi	r19, 0x09	; 9
     f42:	fc 01       	movw	r30, r24
     f44:	35 83       	std	Z+5, r19	; 0x05
     f46:	24 83       	std	Z+4, r18	; 0x04
     f48:	88 e0       	ldi	r24, 0x08	; 8
     f4a:	08 95       	ret

00000f4c <Sumo_edge>:
     f4c:	fc 01       	movw	r30, r24
     f4e:	26 81       	ldd	r18, Z+6	; 0x06
     f50:	23 30       	cpi	r18, 0x03	; 3
     f52:	81 f0       	breq	.+32     	; 0xf74 <Sumo_edge+0x28>
     f54:	2a 30       	cpi	r18, 0x0A	; 10
     f56:	39 f4       	brne	.+14     	; 0xf66 <Sumo_edge+0x1a>
     f58:	28 ea       	ldi	r18, 0xA8	; 168
     f5a:	39 e0       	ldi	r19, 0x09	; 9
     f5c:	fc 01       	movw	r30, r24
     f5e:	35 83       	std	Z+5, r19	; 0x05
     f60:	24 83       	std	Z+4, r18	; 0x04
     f62:	88 e0       	ldi	r24, 0x08	; 8
     f64:	08 95       	ret
     f66:	2f e5       	ldi	r18, 0x5F	; 95
     f68:	32 e0       	ldi	r19, 0x02	; 2
     f6a:	fc 01       	movw	r30, r24
     f6c:	35 83       	std	Z+5, r19	; 0x05
     f6e:	24 83       	std	Z+4, r18	; 0x04
     f70:	80 e0       	ldi	r24, 0x00	; 0
     f72:	08 95       	ret
     f74:	2b e1       	ldi	r18, 0x1B	; 27
     f76:	3a e0       	ldi	r19, 0x0A	; 10
     f78:	fc 01       	movw	r30, r24
     f7a:	35 83       	std	Z+5, r19	; 0x05
     f7c:	24 83       	std	Z+4, r18	; 0x04
     f7e:	88 e0       	ldi	r24, 0x08	; 8
     f80:	08 95       	ret

00000f82 <Sumo_hold>:
     f82:	fc 01       	movw	r30, r24
     f84:	26 81       	ldd	r18, Z+6	; 0x06
     f86:	22 30       	cpi	r18, 0x02	; 2
     f88:	b1 f0       	breq	.+44     	; 0xfb6 <Sumo_hold+0x34>
     f8a:	24 30       	cpi	r18, 0x04	; 4
     f8c:	69 f0       	breq	.+26     	; 0xfa8 <Sumo_hold+0x26>
     f8e:	21 30       	cpi	r18, 0x01	; 1
     f90:	39 f0       	breq	.+14     	; 0xfa0 <Sumo_hold+0x1e>
     f92:	2f e5       	ldi	r18, 0x5F	; 95
     f94:	32 e0       	ldi	r19, 0x02	; 2
     f96:	fc 01       	movw	r30, r24
     f98:	35 83       	std	Z+5, r19	; 0x05
     f9a:	24 83       	std	Z+4, r18	; 0x04
     f9c:	80 e0       	ldi	r24, 0x00	; 0
     f9e:	08 95       	ret
     fa0:	0e 94 c8 00 	call	0x190	; 0x190 <BSP_LedOn>
     fa4:	83 e0       	ldi	r24, 0x03	; 3
     fa6:	08 95       	ret
     fa8:	2f eb       	ldi	r18, 0xBF	; 191
     faa:	38 e0       	ldi	r19, 0x08	; 8
     fac:	fc 01       	movw	r30, r24
     fae:	35 83       	std	Z+5, r19	; 0x05
     fb0:	24 83       	std	Z+4, r18	; 0x04
     fb2:	88 e0       	ldi	r24, 0x08	; 8
     fb4:	08 95       	ret
     fb6:	0e 94 ca 00 	call	0x194	; 0x194 <BSP_LedOff>
     fba:	83 e0       	ldi	r24, 0x03	; 3
     fbc:	08 95       	ret

00000fbe <Sumo_normal>:
     fbe:	fc 01       	movw	r30, r24
     fc0:	26 81       	ldd	r18, Z+6	; 0x06
     fc2:	22 30       	cpi	r18, 0x02	; 2
     fc4:	81 f0       	breq	.+32     	; 0xfe6 <Sumo_normal+0x28>
     fc6:	23 30       	cpi	r18, 0x03	; 3
     fc8:	39 f4       	brne	.+14     	; 0xfd8 <Sumo_normal+0x1a>
     fca:	2e e0       	ldi	r18, 0x0E	; 14
     fcc:	39 e0       	ldi	r19, 0x09	; 9
     fce:	fc 01       	movw	r30, r24
     fd0:	35 83       	std	Z+5, r19	; 0x05
     fd2:	24 83       	std	Z+4, r18	; 0x04
     fd4:	88 e0       	ldi	r24, 0x08	; 8
     fd6:	08 95       	ret
     fd8:	2f eb       	ldi	r18, 0xBF	; 191
     fda:	38 e0       	ldi	r19, 0x08	; 8
     fdc:	fc 01       	movw	r30, r24
     fde:	35 83       	std	Z+5, r19	; 0x05
     fe0:	24 83       	std	Z+4, r18	; 0x04
     fe2:	80 e0       	ldi	r24, 0x00	; 0
     fe4:	08 95       	ret
     fe6:	0e 94 cc 00 	call	0x198	; 0x198 <BSP_Stop>
     fea:	83 e0       	ldi	r24, 0x03	; 3
     fec:	08 95       	ret

00000fee <Sumo_start>:
     fee:	fc 01       	movw	r30, r24
     ff0:	26 81       	ldd	r18, Z+6	; 0x06
     ff2:	23 30       	cpi	r18, 0x03	; 3
     ff4:	c9 f0       	breq	.+50     	; 0x1028 <Sumo_start+0x3a>
     ff6:	58 f0       	brcs	.+22     	; 0x100e <Sumo_start+0x20>
     ff8:	2c 30       	cpi	r18, 0x0C	; 12
     ffa:	11 f0       	breq	.+4      	; 0x1000 <Sumo_start+0x12>
     ffc:	20 31       	cpi	r18, 0x10	; 16
     ffe:	69 f4       	brne	.+26     	; 0x101a <Sumo_start+0x2c>
    1000:	2f ed       	ldi	r18, 0xDF	; 223
    1002:	37 e0       	ldi	r19, 0x07	; 7
    1004:	fc 01       	movw	r30, r24
    1006:	35 83       	std	Z+5, r19	; 0x05
    1008:	24 83       	std	Z+4, r18	; 0x04
    100a:	88 e0       	ldi	r24, 0x08	; 8
    100c:	08 95       	ret
    100e:	22 30       	cpi	r18, 0x02	; 2
    1010:	21 f4       	brne	.+8      	; 0x101a <Sumo_start+0x2c>
    1012:	0e 94 cc 00 	call	0x198	; 0x198 <BSP_Stop>
    1016:	83 e0       	ldi	r24, 0x03	; 3
    1018:	08 95       	ret
    101a:	2f eb       	ldi	r18, 0xBF	; 191
    101c:	38 e0       	ldi	r19, 0x08	; 8
    101e:	fc 01       	movw	r30, r24
    1020:	35 83       	std	Z+5, r19	; 0x05
    1022:	24 83       	std	Z+4, r18	; 0x04
    1024:	80 e0       	ldi	r24, 0x00	; 0
    1026:	08 95       	ret
    1028:	25 ed       	ldi	r18, 0xD5	; 213
    102a:	39 e0       	ldi	r19, 0x09	; 9
    102c:	fc 01       	movw	r30, r24
    102e:	35 83       	std	Z+5, r19	; 0x05
    1030:	24 83       	std	Z+4, r18	; 0x04
    1032:	88 e0       	ldi	r24, 0x08	; 8
    1034:	08 95       	ret

00001036 <Sumo_attack>:
    1036:	fc 01       	movw	r30, r24
    1038:	26 81       	ldd	r18, Z+6	; 0x06
    103a:	22 30       	cpi	r18, 0x02	; 2
    103c:	b9 f0       	breq	.+46     	; 0x106c <Sumo_attack+0x36>
    103e:	2f 30       	cpi	r18, 0x0F	; 15
    1040:	71 f0       	breq	.+28     	; 0x105e <Sumo_attack+0x28>
    1042:	21 30       	cpi	r18, 0x01	; 1
    1044:	39 f0       	breq	.+14     	; 0x1054 <Sumo_attack+0x1e>
    1046:	2f ed       	ldi	r18, 0xDF	; 223
    1048:	37 e0       	ldi	r19, 0x07	; 7
    104a:	fc 01       	movw	r30, r24
    104c:	35 83       	std	Z+5, r19	; 0x05
    104e:	24 83       	std	Z+4, r18	; 0x04
    1050:	80 e0       	ldi	r24, 0x00	; 0
    1052:	08 95       	ret
    1054:	22 8b       	std	Z+18, r18	; 0x12
    1056:	0e 94 d3 00 	call	0x1a6	; 0x1a6 <BSP_GoForward>
    105a:	83 e0       	ldi	r24, 0x03	; 3
    105c:	08 95       	ret
    105e:	2e e0       	ldi	r18, 0x0E	; 14
    1060:	39 e0       	ldi	r19, 0x09	; 9
    1062:	fc 01       	movw	r30, r24
    1064:	35 83       	std	Z+5, r19	; 0x05
    1066:	24 83       	std	Z+4, r18	; 0x04
    1068:	88 e0       	ldi	r24, 0x08	; 8
    106a:	08 95       	ret
    106c:	fc 01       	movw	r30, r24
    106e:	12 8a       	std	Z+18, r1	; 0x12
    1070:	83 e0       	ldi	r24, 0x03	; 3
    1072:	08 95       	ret

00001074 <Sumo_evade_right>:
    1074:	fc 01       	movw	r30, r24
    1076:	26 81       	ldd	r18, Z+6	; 0x06
    1078:	21 30       	cpi	r18, 0x01	; 1
    107a:	39 f0       	breq	.+14     	; 0x108a <Sumo_evade_right+0x16>
    107c:	27 e8       	ldi	r18, 0x87	; 135
    107e:	37 e0       	ldi	r19, 0x07	; 7
    1080:	fc 01       	movw	r30, r24
    1082:	35 83       	std	Z+5, r19	; 0x05
    1084:	24 83       	std	Z+4, r18	; 0x04
    1086:	80 e0       	ldi	r24, 0x00	; 0
    1088:	08 95       	ret
    108a:	0e 94 e5 00 	call	0x1ca	; 0x1ca <BSP_TurnRight>
    108e:	83 e0       	ldi	r24, 0x03	; 3
    1090:	08 95       	ret

00001092 <Sumo_evade_left>:
    1092:	fc 01       	movw	r30, r24
    1094:	26 81       	ldd	r18, Z+6	; 0x06
    1096:	21 30       	cpi	r18, 0x01	; 1
    1098:	39 f0       	breq	.+14     	; 0x10a8 <Sumo_evade_left+0x16>
    109a:	27 e8       	ldi	r18, 0x87	; 135
    109c:	37 e0       	ldi	r19, 0x07	; 7
    109e:	fc 01       	movw	r30, r24
    10a0:	35 83       	std	Z+5, r19	; 0x05
    10a2:	24 83       	std	Z+4, r18	; 0x04
    10a4:	80 e0       	ldi	r24, 0x00	; 0
    10a6:	08 95       	ret
    10a8:	0e 94 ed 00 	call	0x1da	; 0x1da <BSP_TurnLeft>
    10ac:	83 e0       	ldi	r24, 0x03	; 3
    10ae:	08 95       	ret

000010b0 <Sumo_evaded>:
    10b0:	fc 01       	movw	r30, r24
    10b2:	26 81       	ldd	r18, Z+6	; 0x06
    10b4:	2e 30       	cpi	r18, 0x0E	; 14
    10b6:	80 f4       	brcc	.+32     	; 0x10d8 <Sumo_evaded+0x28>
    10b8:	2b 30       	cpi	r18, 0x0B	; 11
    10ba:	b8 f4       	brcc	.+46     	; 0x10ea <Sumo_evaded+0x3a>
    10bc:	21 30       	cpi	r18, 0x01	; 1
    10be:	31 f0       	breq	.+12     	; 0x10cc <Sumo_evaded+0x1c>
    10c0:	22 30       	cpi	r18, 0x02	; 2
    10c2:	61 f4       	brne	.+24     	; 0x10dc <Sumo_evaded+0x2c>
    10c4:	0e 94 cc 00 	call	0x198	; 0x198 <BSP_Stop>
    10c8:	83 e0       	ldi	r24, 0x03	; 3
    10ca:	08 95       	ret
    10cc:	84 ef       	ldi	r24, 0xF4	; 244
    10ce:	91 e0       	ldi	r25, 0x01	; 1
    10d0:	0e 94 af 00 	call	0x15e	; 0x15e <BSP_SetTimer1>
    10d4:	83 e0       	ldi	r24, 0x03	; 3
    10d6:	08 95       	ret
    10d8:	20 31       	cpi	r18, 0x10	; 16
    10da:	39 f0       	breq	.+14     	; 0x10ea <Sumo_evaded+0x3a>
    10dc:	2f ed       	ldi	r18, 0xDF	; 223
    10de:	37 e0       	ldi	r19, 0x07	; 7
    10e0:	fc 01       	movw	r30, r24
    10e2:	35 83       	std	Z+5, r19	; 0x05
    10e4:	24 83       	std	Z+4, r18	; 0x04
    10e6:	80 e0       	ldi	r24, 0x00	; 0
    10e8:	08 95       	ret
    10ea:	2e e0       	ldi	r18, 0x0E	; 14
    10ec:	39 e0       	ldi	r19, 0x09	; 9
    10ee:	fc 01       	movw	r30, r24
    10f0:	35 83       	std	Z+5, r19	; 0x05
    10f2:	24 83       	std	Z+4, r18	; 0x04
    10f4:	88 e0       	ldi	r24, 0x08	; 8
    10f6:	08 95       	ret

000010f8 <Sumo_strafe>:
    10f8:	fc 01       	movw	r30, r24
    10fa:	26 81       	ldd	r18, Z+6	; 0x06
    10fc:	21 30       	cpi	r18, 0x01	; 1
    10fe:	39 f0       	breq	.+14     	; 0x110e <Sumo_strafe+0x16>
    1100:	26 ea       	ldi	r18, 0xA6	; 166
    1102:	37 e0       	ldi	r19, 0x07	; 7
    1104:	fc 01       	movw	r30, r24
    1106:	35 83       	std	Z+5, r19	; 0x05
    1108:	24 83       	std	Z+4, r18	; 0x04
    110a:	80 e0       	ldi	r24, 0x00	; 0
    110c:	08 95       	ret
    110e:	0e 94 dc 00 	call	0x1b8	; 0x1b8 <BSP_GoBack>
    1112:	83 e0       	ldi	r24, 0x03	; 3
    1114:	08 95       	ret

00001116 <Sumo_wait>:
    1116:	cf 93       	push	r28
    1118:	df 93       	push	r29
    111a:	ec 01       	movw	r28, r24
    111c:	8e 81       	ldd	r24, Y+6	; 0x06
    111e:	84 30       	cpi	r24, 0x04	; 4
    1120:	41 f1       	breq	.+80     	; 0x1172 <Sumo_wait+0x5c>
    1122:	88 30       	cpi	r24, 0x08	; 8
    1124:	b1 f0       	breq	.+44     	; 0x1152 <Sumo_wait+0x3c>
    1126:	81 30       	cpi	r24, 0x01	; 1
    1128:	41 f0       	breq	.+16     	; 0x113a <Sumo_wait+0x24>
    112a:	8f e5       	ldi	r24, 0x5F	; 95
    112c:	92 e0       	ldi	r25, 0x02	; 2
    112e:	9d 83       	std	Y+5, r25	; 0x05
    1130:	8c 83       	std	Y+4, r24	; 0x04
    1132:	80 e0       	ldi	r24, 0x00	; 0
    1134:	df 91       	pop	r29
    1136:	cf 91       	pop	r28
    1138:	08 95       	ret
    113a:	24 e6       	ldi	r18, 0x64	; 100
    113c:	30 e0       	ldi	r19, 0x00	; 0
    113e:	44 e6       	ldi	r20, 0x64	; 100
    1140:	50 e0       	ldi	r21, 0x00	; 0
    1142:	60 e0       	ldi	r22, 0x00	; 0
    1144:	ce 01       	movw	r24, r28
    1146:	0e 94 9e 06 	call	0xd3c	; 0xd3c <QActive_armX>
    114a:	83 e0       	ldi	r24, 0x03	; 3
    114c:	df 91       	pop	r29
    114e:	cf 91       	pop	r28
    1150:	08 95       	ret
    1152:	27 ee       	ldi	r18, 0xE7	; 231
    1154:	33 e0       	ldi	r19, 0x03	; 3
    1156:	47 ee       	ldi	r20, 0xE7	; 231
    1158:	53 e0       	ldi	r21, 0x03	; 3
    115a:	60 e0       	ldi	r22, 0x00	; 0
    115c:	ce 01       	movw	r24, r28
    115e:	0e 94 9e 06 	call	0xd3c	; 0xd3c <QActive_armX>
    1162:	81 ec       	ldi	r24, 0xC1	; 193
    1164:	97 e0       	ldi	r25, 0x07	; 7
    1166:	9d 83       	std	Y+5, r25	; 0x05
    1168:	8c 83       	std	Y+4, r24	; 0x04
    116a:	88 e0       	ldi	r24, 0x08	; 8
    116c:	df 91       	pop	r29
    116e:	cf 91       	pop	r28
    1170:	08 95       	ret
    1172:	0e 94 c6 00 	call	0x18c	; 0x18c <BSP_ToggleLed>
    1176:	83 e0       	ldi	r24, 0x03	; 3
    1178:	df 91       	pop	r29
    117a:	cf 91       	pop	r28
    117c:	08 95       	ret

0000117e <Sumo_combat>:
    117e:	cf 93       	push	r28
    1180:	df 93       	push	r29
    1182:	ec 01       	movw	r28, r24
    1184:	8e 81       	ldd	r24, Y+6	; 0x06
    1186:	83 30       	cpi	r24, 0x03	; 3
    1188:	89 f1       	breq	.+98     	; 0x11ec <Sumo_combat+0x6e>
    118a:	d0 f0       	brcs	.+52     	; 0x11c0 <Sumo_combat+0x42>
    118c:	84 30       	cpi	r24, 0x04	; 4
    118e:	69 f0       	breq	.+26     	; 0x11aa <Sumo_combat+0x2c>
    1190:	89 30       	cpi	r24, 0x09	; 9
    1192:	21 f5       	brne	.+72     	; 0x11dc <Sumo_combat+0x5e>
    1194:	8a 89       	ldd	r24, Y+18	; 0x12
    1196:	81 11       	cpse	r24, r1
    1198:	31 c0       	rjmp	.+98     	; 0x11fc <Sumo_combat+0x7e>
    119a:	86 ea       	ldi	r24, 0xA6	; 166
    119c:	97 e0       	ldi	r25, 0x07	; 7
    119e:	9d 83       	std	Y+5, r25	; 0x05
    11a0:	8c 83       	std	Y+4, r24	; 0x04
    11a2:	88 e0       	ldi	r24, 0x08	; 8
    11a4:	df 91       	pop	r29
    11a6:	cf 91       	pop	r28
    11a8:	08 95       	ret
    11aa:	0e 94 c6 00 	call	0x18c	; 0x18c <BSP_ToggleLed>
    11ae:	ce 01       	movw	r24, r28
    11b0:	0e 94 1e 01 	call	0x23c	; 0x23c <BSP_ReadOpSensors>
    11b4:	81 11       	cpse	r24, r1
    11b6:	26 c0       	rjmp	.+76     	; 0x1204 <Sumo_combat+0x86>
    11b8:	83 e0       	ldi	r24, 0x03	; 3
    11ba:	df 91       	pop	r29
    11bc:	cf 91       	pop	r28
    11be:	08 95       	ret
    11c0:	81 30       	cpi	r24, 0x01	; 1
    11c2:	61 f4       	brne	.+24     	; 0x11dc <Sumo_combat+0x5e>
    11c4:	28 e0       	ldi	r18, 0x08	; 8
    11c6:	30 e0       	ldi	r19, 0x00	; 0
    11c8:	48 e0       	ldi	r20, 0x08	; 8
    11ca:	50 e0       	ldi	r21, 0x00	; 0
    11cc:	60 e0       	ldi	r22, 0x00	; 0
    11ce:	ce 01       	movw	r24, r28
    11d0:	0e 94 9e 06 	call	0xd3c	; 0xd3c <QActive_armX>
    11d4:	83 e0       	ldi	r24, 0x03	; 3
    11d6:	df 91       	pop	r29
    11d8:	cf 91       	pop	r28
    11da:	08 95       	ret
    11dc:	8f e5       	ldi	r24, 0x5F	; 95
    11de:	92 e0       	ldi	r25, 0x02	; 2
    11e0:	9d 83       	std	Y+5, r25	; 0x05
    11e2:	8c 83       	std	Y+4, r24	; 0x04
    11e4:	80 e0       	ldi	r24, 0x00	; 0
    11e6:	df 91       	pop	r29
    11e8:	cf 91       	pop	r28
    11ea:	08 95       	ret
    11ec:	87 ef       	ldi	r24, 0xF7	; 247
    11ee:	97 e0       	ldi	r25, 0x07	; 7
    11f0:	9d 83       	std	Y+5, r25	; 0x05
    11f2:	8c 83       	std	Y+4, r24	; 0x04
    11f4:	88 e0       	ldi	r24, 0x08	; 8
    11f6:	df 91       	pop	r29
    11f8:	cf 91       	pop	r28
    11fa:	08 95       	ret
    11fc:	89 89       	ldd	r24, Y+17	; 0x11
    11fe:	88 23       	and	r24, r24
    1200:	61 f2       	breq	.-104    	; 0x119a <Sumo_combat+0x1c>
    1202:	da cf       	rjmp	.-76     	; 0x11b8 <Sumo_combat+0x3a>
    1204:	e8 81       	ld	r30, Y
    1206:	f9 81       	ldd	r31, Y+1	; 0x01
    1208:	04 80       	ldd	r0, Z+4	; 0x04
    120a:	f5 81       	ldd	r31, Z+5	; 0x05
    120c:	e0 2d       	mov	r30, r0
    120e:	20 e0       	ldi	r18, 0x00	; 0
    1210:	4f e0       	ldi	r20, 0x0F	; 15
    1212:	50 e0       	ldi	r21, 0x00	; 0
    1214:	6f ef       	ldi	r22, 0xFF	; 255
    1216:	ce 01       	movw	r24, r28
    1218:	09 95       	icall
    121a:	ce cf       	rjmp	.-100    	; 0x11b8 <Sumo_combat+0x3a>

0000121c <Sumo_search>:
    121c:	cf 93       	push	r28
    121e:	df 93       	push	r29
    1220:	ec 01       	movw	r28, r24
    1222:	8e 81       	ldd	r24, Y+6	; 0x06
    1224:	8b 30       	cpi	r24, 0x0B	; 11
    1226:	61 f1       	breq	.+88     	; 0x1280 <Sumo_search+0x64>
    1228:	d8 f0       	brcs	.+54     	; 0x1260 <Sumo_search+0x44>
    122a:	8c 30       	cpi	r24, 0x0C	; 12
    122c:	89 f0       	breq	.+34     	; 0x1250 <Sumo_search+0x34>
    122e:	8d 30       	cpi	r24, 0x0D	; 13
    1230:	f9 f4       	brne	.+62     	; 0x1270 <Sumo_search+0x54>
    1232:	60 e0       	ldi	r22, 0x00	; 0
    1234:	8f 81       	ldd	r24, Y+7	; 0x07
    1236:	0e 94 f5 00 	call	0x1ea	; 0x1ea <BSP_TurnSpeed>
    123a:	8f 81       	ldd	r24, Y+7	; 0x07
    123c:	84 33       	cpi	r24, 0x34	; 52
    123e:	78 f1       	brcs	.+94     	; 0x129e <Sumo_search+0x82>
    1240:	8a e3       	ldi	r24, 0x3A	; 58
    1242:	98 e0       	ldi	r25, 0x08	; 8
    1244:	9d 83       	std	Y+5, r25	; 0x05
    1246:	8c 83       	std	Y+4, r24	; 0x04
    1248:	88 e0       	ldi	r24, 0x08	; 8
    124a:	df 91       	pop	r29
    124c:	cf 91       	pop	r28
    124e:	08 95       	ret
    1250:	8b e1       	ldi	r24, 0x1B	; 27
    1252:	98 e0       	ldi	r25, 0x08	; 8
    1254:	9d 83       	std	Y+5, r25	; 0x05
    1256:	8c 83       	std	Y+4, r24	; 0x04
    1258:	88 e0       	ldi	r24, 0x08	; 8
    125a:	df 91       	pop	r29
    125c:	cf 91       	pop	r28
    125e:	08 95       	ret
    1260:	81 30       	cpi	r24, 0x01	; 1
    1262:	31 f4       	brne	.+12     	; 0x1270 <Sumo_search+0x54>
    1264:	0e 94 d3 00 	call	0x1a6	; 0x1a6 <BSP_GoForward>
    1268:	83 e0       	ldi	r24, 0x03	; 3
    126a:	df 91       	pop	r29
    126c:	cf 91       	pop	r28
    126e:	08 95       	ret
    1270:	8f ed       	ldi	r24, 0xDF	; 223
    1272:	97 e0       	ldi	r25, 0x07	; 7
    1274:	9d 83       	std	Y+5, r25	; 0x05
    1276:	8c 83       	std	Y+4, r24	; 0x04
    1278:	80 e0       	ldi	r24, 0x00	; 0
    127a:	df 91       	pop	r29
    127c:	cf 91       	pop	r28
    127e:	08 95       	ret
    1280:	6f ef       	ldi	r22, 0xFF	; 255
    1282:	8f 81       	ldd	r24, Y+7	; 0x07
    1284:	0e 94 f5 00 	call	0x1ea	; 0x1ea <BSP_TurnSpeed>
    1288:	8f 81       	ldd	r24, Y+7	; 0x07
    128a:	84 33       	cpi	r24, 0x34	; 52
    128c:	68 f0       	brcs	.+26     	; 0x12a8 <Sumo_search+0x8c>
    128e:	89 e4       	ldi	r24, 0x49	; 73
    1290:	98 e0       	ldi	r25, 0x08	; 8
    1292:	9d 83       	std	Y+5, r25	; 0x05
    1294:	8c 83       	std	Y+4, r24	; 0x04
    1296:	88 e0       	ldi	r24, 0x08	; 8
    1298:	df 91       	pop	r29
    129a:	cf 91       	pop	r28
    129c:	08 95       	ret
    129e:	60 e0       	ldi	r22, 0x00	; 0
    12a0:	0e 94 f5 00 	call	0x1ea	; 0x1ea <BSP_TurnSpeed>
    12a4:	83 e0       	ldi	r24, 0x03	; 3
    12a6:	d9 cf       	rjmp	.-78     	; 0x125a <Sumo_search+0x3e>
    12a8:	6f ef       	ldi	r22, 0xFF	; 255
    12aa:	0e 94 f5 00 	call	0x1ea	; 0x1ea <BSP_TurnSpeed>
    12ae:	83 e0       	ldi	r24, 0x03	; 3
    12b0:	d4 cf       	rjmp	.-88     	; 0x125a <Sumo_search+0x3e>

000012b2 <Sumo_is_back>:
    12b2:	fc 01       	movw	r30, r24
    12b4:	26 81       	ldd	r18, Z+6	; 0x06
    12b6:	21 30       	cpi	r18, 0x01	; 1
    12b8:	39 f0       	breq	.+14     	; 0x12c8 <Sumo_is_back+0x16>
    12ba:	27 ef       	ldi	r18, 0xF7	; 247
    12bc:	37 e0       	ldi	r19, 0x07	; 7
    12be:	fc 01       	movw	r30, r24
    12c0:	35 83       	std	Z+5, r19	; 0x05
    12c2:	24 83       	std	Z+4, r18	; 0x04
    12c4:	80 e0       	ldi	r24, 0x00	; 0
    12c6:	08 95       	ret
    12c8:	0e 94 ed 00 	call	0x1da	; 0x1da <BSP_TurnLeft>
    12cc:	88 ee       	ldi	r24, 0xE8	; 232
    12ce:	93 e0       	ldi	r25, 0x03	; 3
    12d0:	0e 94 af 00 	call	0x15e	; 0x15e <BSP_SetTimer1>
    12d4:	83 e0       	ldi	r24, 0x03	; 3
    12d6:	08 95       	ret

000012d8 <Sumo_is_left>:
    12d8:	fc 01       	movw	r30, r24
    12da:	26 81       	ldd	r18, Z+6	; 0x06
    12dc:	21 30       	cpi	r18, 0x01	; 1
    12de:	59 f4       	brne	.+22     	; 0x12f6 <Sumo_is_left+0x1e>
    12e0:	80 89       	ldd	r24, Z+16	; 0x10
    12e2:	88 23       	and	r24, r24
    12e4:	79 f0       	breq	.+30     	; 0x1304 <Sumo_is_left+0x2c>
    12e6:	83 30       	cpi	r24, 0x03	; 3
    12e8:	69 f4       	brne	.+26     	; 0x1304 <Sumo_is_left+0x2c>
    12ea:	6f ef       	ldi	r22, 0xFF	; 255
    12ec:	88 e2       	ldi	r24, 0x28	; 40
    12ee:	0e 94 f5 00 	call	0x1ea	; 0x1ea <BSP_TurnSpeed>
    12f2:	83 e0       	ldi	r24, 0x03	; 3
    12f4:	08 95       	ret
    12f6:	27 ef       	ldi	r18, 0xF7	; 247
    12f8:	37 e0       	ldi	r19, 0x07	; 7
    12fa:	fc 01       	movw	r30, r24
    12fc:	35 83       	std	Z+5, r19	; 0x05
    12fe:	24 83       	std	Z+4, r18	; 0x04
    1300:	80 e0       	ldi	r24, 0x00	; 0
    1302:	08 95       	ret
    1304:	0e 94 ed 00 	call	0x1da	; 0x1da <BSP_TurnLeft>
    1308:	84 e9       	ldi	r24, 0x94	; 148
    130a:	92 e0       	ldi	r25, 0x02	; 2
    130c:	0e 94 af 00 	call	0x15e	; 0x15e <BSP_SetTimer1>
    1310:	83 e0       	ldi	r24, 0x03	; 3
    1312:	08 95       	ret

00001314 <Sumo_is_right>:
    1314:	fc 01       	movw	r30, r24
    1316:	26 81       	ldd	r18, Z+6	; 0x06
    1318:	21 30       	cpi	r18, 0x01	; 1
    131a:	59 f4       	brne	.+22     	; 0x1332 <Sumo_is_right+0x1e>
    131c:	80 89       	ldd	r24, Z+16	; 0x10
    131e:	88 23       	and	r24, r24
    1320:	79 f0       	breq	.+30     	; 0x1340 <Sumo_is_right+0x2c>
    1322:	83 30       	cpi	r24, 0x03	; 3
    1324:	69 f4       	brne	.+26     	; 0x1340 <Sumo_is_right+0x2c>
    1326:	60 e0       	ldi	r22, 0x00	; 0
    1328:	88 e2       	ldi	r24, 0x28	; 40
    132a:	0e 94 f5 00 	call	0x1ea	; 0x1ea <BSP_TurnSpeed>
    132e:	83 e0       	ldi	r24, 0x03	; 3
    1330:	08 95       	ret
    1332:	27 ef       	ldi	r18, 0xF7	; 247
    1334:	37 e0       	ldi	r19, 0x07	; 7
    1336:	fc 01       	movw	r30, r24
    1338:	35 83       	std	Z+5, r19	; 0x05
    133a:	24 83       	std	Z+4, r18	; 0x04
    133c:	80 e0       	ldi	r24, 0x00	; 0
    133e:	08 95       	ret
    1340:	0e 94 e5 00 	call	0x1ca	; 0x1ca <BSP_TurnRight>
    1344:	84 e9       	ldi	r24, 0x94	; 148
    1346:	92 e0       	ldi	r25, 0x02	; 2
    1348:	0e 94 af 00 	call	0x15e	; 0x15e <BSP_SetTimer1>
    134c:	83 e0       	ldi	r24, 0x03	; 3
    134e:	08 95       	ret

00001350 <Sumo_turn>:
    1350:	fc 01       	movw	r30, r24
    1352:	26 81       	ldd	r18, Z+6	; 0x06
    1354:	2e 30       	cpi	r18, 0x0E	; 14
    1356:	b0 f4       	brcc	.+44     	; 0x1384 <Sumo_turn+0x34>
    1358:	2b 30       	cpi	r18, 0x0B	; 11
    135a:	e8 f4       	brcc	.+58     	; 0x1396 <Sumo_turn+0x46>
    135c:	21 30       	cpi	r18, 0x01	; 1
    135e:	31 f0       	breq	.+12     	; 0x136c <Sumo_turn+0x1c>
    1360:	22 30       	cpi	r18, 0x02	; 2
    1362:	91 f4       	brne	.+36     	; 0x1388 <Sumo_turn+0x38>
    1364:	0e 94 cc 00 	call	0x198	; 0x198 <BSP_Stop>
    1368:	83 e0       	ldi	r24, 0x03	; 3
    136a:	08 95       	ret
    136c:	fc 01       	movw	r30, r24
    136e:	81 89       	ldd	r24, Z+17	; 0x11
    1370:	81 30       	cpi	r24, 0x01	; 1
    1372:	c1 f0       	breq	.+48     	; 0x13a4 <Sumo_turn+0x54>
    1374:	0e 94 ed 00 	call	0x1da	; 0x1da <BSP_TurnLeft>
    1378:	84 ef       	ldi	r24, 0xF4	; 244
    137a:	91 e0       	ldi	r25, 0x01	; 1
    137c:	0e 94 af 00 	call	0x15e	; 0x15e <BSP_SetTimer1>
    1380:	83 e0       	ldi	r24, 0x03	; 3
    1382:	08 95       	ret
    1384:	20 31       	cpi	r18, 0x10	; 16
    1386:	39 f0       	breq	.+14     	; 0x1396 <Sumo_turn+0x46>
    1388:	2f eb       	ldi	r18, 0xBF	; 191
    138a:	38 e0       	ldi	r19, 0x08	; 8
    138c:	fc 01       	movw	r30, r24
    138e:	35 83       	std	Z+5, r19	; 0x05
    1390:	24 83       	std	Z+4, r18	; 0x04
    1392:	80 e0       	ldi	r24, 0x00	; 0
    1394:	08 95       	ret
    1396:	2f ed       	ldi	r18, 0xDF	; 223
    1398:	37 e0       	ldi	r19, 0x07	; 7
    139a:	fc 01       	movw	r30, r24
    139c:	35 83       	std	Z+5, r19	; 0x05
    139e:	24 83       	std	Z+4, r18	; 0x04
    13a0:	88 e0       	ldi	r24, 0x08	; 8
    13a2:	08 95       	ret
    13a4:	0e 94 e5 00 	call	0x1ca	; 0x1ca <BSP_TurnRight>
    13a8:	e7 cf       	rjmp	.-50     	; 0x1378 <Sumo_turn+0x28>

000013aa <Sumo_read>:
    13aa:	cf 93       	push	r28
    13ac:	df 93       	push	r29
    13ae:	ec 01       	movw	r28, r24
    13b0:	8e 81       	ldd	r24, Y+6	; 0x06
    13b2:	8b 30       	cpi	r24, 0x0B	; 11
    13b4:	59 f1       	breq	.+86     	; 0x140c <Sumo_read+0x62>
    13b6:	a0 f0       	brcs	.+40     	; 0x13e0 <Sumo_read+0x36>
    13b8:	8d 30       	cpi	r24, 0x0D	; 13
    13ba:	51 f0       	breq	.+20     	; 0x13d0 <Sumo_read+0x26>
    13bc:	8e 30       	cpi	r24, 0x0E	; 14
    13be:	f1 f4       	brne	.+60     	; 0x13fc <Sumo_read+0x52>
    13c0:	89 e5       	ldi	r24, 0x59	; 89
    13c2:	99 e0       	ldi	r25, 0x09	; 9
    13c4:	9d 83       	std	Y+5, r25	; 0x05
    13c6:	8c 83       	std	Y+4, r24	; 0x04
    13c8:	88 e0       	ldi	r24, 0x08	; 8
    13ca:	df 91       	pop	r29
    13cc:	cf 91       	pop	r28
    13ce:	08 95       	ret
    13d0:	8a e8       	ldi	r24, 0x8A	; 138
    13d2:	99 e0       	ldi	r25, 0x09	; 9
    13d4:	9d 83       	std	Y+5, r25	; 0x05
    13d6:	8c 83       	std	Y+4, r24	; 0x04
    13d8:	88 e0       	ldi	r24, 0x08	; 8
    13da:	df 91       	pop	r29
    13dc:	cf 91       	pop	r28
    13de:	08 95       	ret
    13e0:	81 30       	cpi	r24, 0x01	; 1
    13e2:	61 f4       	brne	.+24     	; 0x13fc <Sumo_read+0x52>
    13e4:	ce 01       	movw	r24, r28
    13e6:	0e 94 17 01 	call	0x22e	; 0x22e <BSP_ReadMode>
    13ea:	ce 01       	movw	r24, r28
    13ec:	0e 94 1e 01 	call	0x23c	; 0x23c <BSP_ReadOpSensors>
    13f0:	81 11       	cpse	r24, r1
    13f2:	14 c0       	rjmp	.+40     	; 0x141c <Sumo_read+0x72>
    13f4:	83 e0       	ldi	r24, 0x03	; 3
    13f6:	df 91       	pop	r29
    13f8:	cf 91       	pop	r28
    13fa:	08 95       	ret
    13fc:	87 ef       	ldi	r24, 0xF7	; 247
    13fe:	97 e0       	ldi	r25, 0x07	; 7
    1400:	9d 83       	std	Y+5, r25	; 0x05
    1402:	8c 83       	std	Y+4, r24	; 0x04
    1404:	80 e0       	ldi	r24, 0x00	; 0
    1406:	df 91       	pop	r29
    1408:	cf 91       	pop	r28
    140a:	08 95       	ret
    140c:	8c e6       	ldi	r24, 0x6C	; 108
    140e:	99 e0       	ldi	r25, 0x09	; 9
    1410:	9d 83       	std	Y+5, r25	; 0x05
    1412:	8c 83       	std	Y+4, r24	; 0x04
    1414:	88 e0       	ldi	r24, 0x08	; 8
    1416:	df 91       	pop	r29
    1418:	cf 91       	pop	r28
    141a:	08 95       	ret
    141c:	e8 81       	ld	r30, Y
    141e:	f9 81       	ldd	r31, Y+1	; 0x01
    1420:	04 80       	ldd	r0, Z+4	; 0x04
    1422:	f5 81       	ldd	r31, Z+5	; 0x05
    1424:	e0 2d       	mov	r30, r0
    1426:	20 e0       	ldi	r18, 0x00	; 0
    1428:	4e e0       	ldi	r20, 0x0E	; 14
    142a:	50 e0       	ldi	r21, 0x00	; 0
    142c:	6f ef       	ldi	r22, 0xFF	; 255
    142e:	ce 01       	movw	r24, r28
    1430:	09 95       	icall
    1432:	83 e0       	ldi	r24, 0x03	; 3
    1434:	ca cf       	rjmp	.-108    	; 0x13ca <Sumo_read+0x20>

00001436 <Sumo_back>:
    1436:	cf 93       	push	r28
    1438:	df 93       	push	r29
    143a:	ec 01       	movw	r28, r24
    143c:	8e 81       	ldd	r24, Y+6	; 0x06
    143e:	81 30       	cpi	r24, 0x01	; 1
    1440:	91 f0       	breq	.+36     	; 0x1466 <Sumo_back+0x30>
    1442:	84 30       	cpi	r24, 0x04	; 4
    1444:	41 f0       	breq	.+16     	; 0x1456 <Sumo_back+0x20>
    1446:	86 ea       	ldi	r24, 0xA6	; 166
    1448:	97 e0       	ldi	r25, 0x07	; 7
    144a:	9d 83       	std	Y+5, r25	; 0x05
    144c:	8c 83       	std	Y+4, r24	; 0x04
    144e:	80 e0       	ldi	r24, 0x00	; 0
    1450:	df 91       	pop	r29
    1452:	cf 91       	pop	r28
    1454:	08 95       	ret
    1456:	8c e7       	ldi	r24, 0x7C	; 124
    1458:	98 e0       	ldi	r25, 0x08	; 8
    145a:	9d 83       	std	Y+5, r25	; 0x05
    145c:	8c 83       	std	Y+4, r24	; 0x04
    145e:	88 e0       	ldi	r24, 0x08	; 8
    1460:	df 91       	pop	r29
    1462:	cf 91       	pop	r28
    1464:	08 95       	ret
    1466:	0e 94 dc 00 	call	0x1b8	; 0x1b8 <BSP_GoBack>
    146a:	6a ef       	ldi	r22, 0xFA	; 250
    146c:	70 e0       	ldi	r23, 0x00	; 0
    146e:	80 e0       	ldi	r24, 0x00	; 0
    1470:	90 e0       	ldi	r25, 0x00	; 0
    1472:	0e 94 67 00 	call	0xce	; 0xce <BSP_delay_ms>
    1476:	24 e6       	ldi	r18, 0x64	; 100
    1478:	30 e0       	ldi	r19, 0x00	; 0
    147a:	44 e6       	ldi	r20, 0x64	; 100
    147c:	50 e0       	ldi	r21, 0x00	; 0
    147e:	60 e0       	ldi	r22, 0x00	; 0
    1480:	ce 01       	movw	r24, r28
    1482:	0e 94 9e 06 	call	0xd3c	; 0xd3c <QActive_armX>
    1486:	83 e0       	ldi	r24, 0x03	; 3
    1488:	df 91       	pop	r29
    148a:	cf 91       	pop	r28
    148c:	08 95       	ret

0000148e <Sumo_initial>:
    148e:	2b e8       	ldi	r18, 0x8B	; 139
    1490:	38 e0       	ldi	r19, 0x08	; 8
    1492:	fc 01       	movw	r30, r24
    1494:	35 83       	std	Z+5, r19	; 0x05
    1496:	24 83       	std	Z+4, r18	; 0x04
    1498:	88 e0       	ldi	r24, 0x08	; 8
    149a:	08 95       	ret

0000149c <__mulsi3>:
    149c:	db 01       	movw	r26, r22
    149e:	8f 93       	push	r24
    14a0:	9f 93       	push	r25
    14a2:	0e 94 80 0a 	call	0x1500	; 0x1500 <__muluhisi3>
    14a6:	bf 91       	pop	r27
    14a8:	af 91       	pop	r26
    14aa:	a2 9f       	mul	r26, r18
    14ac:	80 0d       	add	r24, r0
    14ae:	91 1d       	adc	r25, r1
    14b0:	a3 9f       	mul	r26, r19
    14b2:	90 0d       	add	r25, r0
    14b4:	b2 9f       	mul	r27, r18
    14b6:	90 0d       	add	r25, r0
    14b8:	11 24       	eor	r1, r1
    14ba:	08 95       	ret

000014bc <__udivmodsi4>:
    14bc:	a1 e2       	ldi	r26, 0x21	; 33
    14be:	1a 2e       	mov	r1, r26
    14c0:	aa 1b       	sub	r26, r26
    14c2:	bb 1b       	sub	r27, r27
    14c4:	fd 01       	movw	r30, r26
    14c6:	0d c0       	rjmp	.+26     	; 0x14e2 <__udivmodsi4_ep>

000014c8 <__udivmodsi4_loop>:
    14c8:	aa 1f       	adc	r26, r26
    14ca:	bb 1f       	adc	r27, r27
    14cc:	ee 1f       	adc	r30, r30
    14ce:	ff 1f       	adc	r31, r31
    14d0:	a2 17       	cp	r26, r18
    14d2:	b3 07       	cpc	r27, r19
    14d4:	e4 07       	cpc	r30, r20
    14d6:	f5 07       	cpc	r31, r21
    14d8:	20 f0       	brcs	.+8      	; 0x14e2 <__udivmodsi4_ep>
    14da:	a2 1b       	sub	r26, r18
    14dc:	b3 0b       	sbc	r27, r19
    14de:	e4 0b       	sbc	r30, r20
    14e0:	f5 0b       	sbc	r31, r21

000014e2 <__udivmodsi4_ep>:
    14e2:	66 1f       	adc	r22, r22
    14e4:	77 1f       	adc	r23, r23
    14e6:	88 1f       	adc	r24, r24
    14e8:	99 1f       	adc	r25, r25
    14ea:	1a 94       	dec	r1
    14ec:	69 f7       	brne	.-38     	; 0x14c8 <__udivmodsi4_loop>
    14ee:	60 95       	com	r22
    14f0:	70 95       	com	r23
    14f2:	80 95       	com	r24
    14f4:	90 95       	com	r25
    14f6:	9b 01       	movw	r18, r22
    14f8:	ac 01       	movw	r20, r24
    14fa:	bd 01       	movw	r22, r26
    14fc:	cf 01       	movw	r24, r30
    14fe:	08 95       	ret

00001500 <__muluhisi3>:
    1500:	0e 94 8b 0a 	call	0x1516	; 0x1516 <__umulhisi3>
    1504:	a5 9f       	mul	r26, r21
    1506:	90 0d       	add	r25, r0
    1508:	b4 9f       	mul	r27, r20
    150a:	90 0d       	add	r25, r0
    150c:	a4 9f       	mul	r26, r20
    150e:	80 0d       	add	r24, r0
    1510:	91 1d       	adc	r25, r1
    1512:	11 24       	eor	r1, r1
    1514:	08 95       	ret

00001516 <__umulhisi3>:
    1516:	a2 9f       	mul	r26, r18
    1518:	b0 01       	movw	r22, r0
    151a:	b3 9f       	mul	r27, r19
    151c:	c0 01       	movw	r24, r0
    151e:	a3 9f       	mul	r26, r19
    1520:	70 0d       	add	r23, r0
    1522:	81 1d       	adc	r24, r1
    1524:	11 24       	eor	r1, r1
    1526:	91 1d       	adc	r25, r1
    1528:	b2 9f       	mul	r27, r18
    152a:	70 0d       	add	r23, r0
    152c:	81 1d       	adc	r24, r1
    152e:	11 24       	eor	r1, r1
    1530:	91 1d       	adc	r25, r1
    1532:	08 95       	ret

00001534 <_exit>:
    1534:	f8 94       	cli

00001536 <__stop_program>:
    1536:	ff cf       	rjmp	.-2      	; 0x1536 <__stop_program>
